(dp1
S'obstruction'
p2
I2949
sS'pardon'
p3
I3063
sS'hats'
p4
I1949
sS'trumpton'
p5
I4423
sS'wenesday'
p6
I4684
sS'colleges'
p7
I884
sS'four'
p8
I1714
sS'debunks'
p9
I1142
sS'protest'
p10
I3315
sS'sleep'
p11
I3931
sS'controversial'
p12
I982
sS'hanging'
p13
I1925
sS'protestors'
p14
I3318
sS'pheasant'
p15
I3129
sS'ridiculous'
p16
I3611
sS'battleground'
p17
I456
sS'hate'
p18
I1942
sS'worked'
p19
I4752
sS'marching'
p20
I2615
sS'stinks'
p21
I4074
sS'looking'
p22
I2543
sS'votes'
p23
I4610
sS'haters'
p24
I1945
sS'founder'
p25
I1712
sS'dazu'
p26
I1124
sS'paris'
p27
I3066
sS'pantano'
p28
I3057
sS'nominates'
p29
I2910
sS'tonya'
p30
I4337
sS'groundwork'
p31
I1874
sS'edward'
p32
I1407
sS'voted'
p33
I4607
sS'kidman'
p34
I2362
sS'under'
p35
I4475
sS'lord'
p36
I2546
sS'welcome'
p37
I4679
sS'sway'
p38
I4171
sS'suburban'
p39
I4118
sS'divergent'
p40
I1306
sS'pact'
p41
I3044
sS'updated'
p42
I4519
sS'risk'
p43
I3630
sS'unpopular'
p44
I4505
sS'til'
p45
I4314
sS'regional'
p46
I3476
sS'withdraws'
p47
I4738
sS'shoot'
p48
I3864
sS'smack'
p49
I3939
sS'mania'
p50
I2599
sS'every'
p51
I1513
sS'updates'
p52
I4520
sS'govern'
p53
I1839
sS'affect'
p54
I156
sS'exporters'
p55
I1546
sS'bringing'
p56
I623
sS'manaforts'
p57
I2596
sS'school'
p58
I3747
sS'nfl'
p59
I2893
sS'publicly'
p60
I3335
sS'hath'
p61
I1946
sS'skills'
p62
I3914
sS'34m'
p63
I42
sS'companies'
p64
I915
sS'solution'
p65
I3964
sS'herbert'
p66
I1993
sS'roadblock'
p67
I3634
sS'pardons'
p68
I3065
sS'math'
p69
I2634
sS'unhinged'
p70
I4489
sS'deplorable'
p71
I1210
sS'heading'
p72
I1964
sS'triumph'
p73
I4397
sS'clothes'
p74
I860
sS'uncovers'
p75
I4474
sS'force'
p76
I1697
sS'leaders'
p77
I2434
sS'10m'
p78
I7
sS'miller'
p79
I2708
sS'warns'
p80
I4640
sS'hating'
p81
I1947
sS'bridgitte'
p82
I618
sS'elections'
p83
I1421
sS'270'
p84
I32
sS'crave'
p85
I1041
sS'jennett'
p86
I2279
sS'summer'
p87
I4135
sS'streep'
p88
I4092
sS'n'
I2831
sS'draintheswamp'
p89
I1354
sS'machines'
p90
I2572
sS'theory'
p91
I4276
sS'blue'
p92
I561
sS'neo'
p93
I2872
sS'brexit'
p94
I611
sS'captain'
p95
I708
sS'hide'
p96
I1999
sS'curbs'
p97
I1078
sS'reopens'
p98
I3520
sS'religious'
p99
I3501
sS'horcruxes'
p100
I2052
sS'beaten'
p101
I466
sS'asia'
p102
I334
sS'children'
p103
I803
sS'spokesman'
p104
I4008
sS'lights'
p105
I2492
sS'daesh'
p106
I1092
sS'zervos'
p107
I4813
sS'jerome'
p108
I2281
sS'ukrainian'
p109
I4461
sS'endorse'
p110
I1453
sS'crackdown'
p111
I1035
sS'net'
p112
I2877
sS'dauphin'
p113
I1118
sS'disney'
p114
I1289
sS'shocks'
p115
I3862
sS'hero'
p116
I1995
sS'sinks'
p117
I3905
sS'reporter'
p118
I3538
sS'payroll'
p119
I3095
sS'even'
p120
I1509
sS'pouring'
p121
I3231
sS'here'
p122
I1994
sS'hundreds'
p123
I2081
sS'lgbt'
p124
I2472
sS'deposition'
p125
I1218
sS'nicht'
p126
I2897
sS'china'
p127
I805
sS'governing'
p128
I1840
sS'underway'
p129
I4479
sS'active'
p130
I119
sS'path'
p131
I3084
sS'100'
p132
I5
sS'nosedive'
p133
I2922
sS'obtained'
p134
I2950
sS'generals'
p135
I1778
sS'daughter'
p136
I1117
sS'k'
I2334
sS'changed'
p137
I772
sS'envoy'
p138
I1472
sS'regulators'
p139
I3484
sS'reports'
p140
I3541
sS'controversy'
p141
I984
sS'credit'
p142
I1046
sS'harass'
p143
I1933
sS'saint'
p144
I3697
sS'analysts'
p145
I239
sS'permit'
p146
I3114
sS'bunker'
p147
I648
sS'changes'
p148
I774
sS'cancellation'
p149
I697
sS'york'
p150
I4800
sS'criticism'
p151
I1059
sS'golden'
p152
I1825
sS'fantastic'
p153
I1593
sS'decries'
p154
I1161
sS'projection'
p155
I3294
sS'campaign'
p156
I689
sS'criticise'
p157
I1056
sS'redecorate'
p158
I3461
sS'conservatives'
p159
I961
sS'reagan'
p160
I3426
sS'treatment'
p161
I4385
sS'julia'
p162
I2323
sS'highly'
p163
I2005
sS'brought'
p164
I634
sS'patience'
p165
I3085
sS'trumppledge'
p166
I4419
sS'waits'
p167
I4623
sS'pyongyang'
p168
I3361
sS'total'
p169
I4348
sS'heathrow'
p170
I1979
sS'opponents'
p171
I2992
sS'jinping'
p172
I2292
sS'plot'
p173
I3178
sS'cheating'
p174
I789
sS'reflected'
p175
I3469
sS'dnc'
p176
I1312
sS'army'
p177
I318
sS'retweets'
p178
I3581
sS'idyll'
p179
I2103
sS'gloss'
p180
I1813
sS'grahame'
p181
I1850
sS'chooses'
p182
I812
sS'clickhole'
p183
I847
sS'leaks'
p184
I2440
sS'call'
p185
I678
sS'calm'
p186
I682
sS'raids'
p187
I3388
sS'violently'
p188
I4586
sS'strike'
p189
I4098
sS'indiana'
p190
I2163
sS'marchers'
p191
I2613
sS'tell'
p192
I4239
sS'abusing'
p193
I94
sS'funciona'
p194
I1745
sS'supporters'
p195
I4144
sS'mired'
p196
I2727
sS'successful'
p197
I4121
sS'expose'
p198
I1547
sS'sortie'
p199
I3973
sS'wars'
p200
I4642
sS'aware'
p201
I397
sS'grief'
p202
I1865
sS'phone'
p203
I3136
sS'berlin'
p204
I499
sS'ardently'
p205
I307
sS'91'
p206
I72
sS'90'
p207
I70
sS'physically'
p208
I3140
sS'hold'
p209
I2029
sS'95'
p210
I73
sS'hostile'
p211
I2061
sS'me'
p212
I2653
sS'1990'
p213
I19
sS'join'
p214
I2302
sS'language'
p215
I2409
sS'dodd'
p216
I1316
sS'pursue'
p217
I3349
sS'victory'
p218
I4573
sS'work'
p219
I4751
sS'eclipse'
p220
I1395
sS'grovel'
p221
I1877
sS'tc'
p222
I4228
sS'locker'
p223
I2532
sS'cuddle'
p224
I1074
sS'era'
p225
I1480
sS'erb'
p226
I1482
sS'mr'
p227
I2801
sS'im'
p228
I2117
sS'radicalisation'
p229
I3383
sS'my'
p230
I2828
sS'route'
p231
I3661
sS'il'
p232
I2112
sS'saturday'
p233
I3717
sS'estate'
p234
I1497
sS'give'
p235
I1799
sS'moveon'
p236
I2794
sS'shunned'
p237
I3883
sS'bennett'
p238
I498
sS'india'
p239
I2161
sS'heartless'
p240
I1977
sS'currency'
p241
I1079
sS'woman'
p242
I4743
sS'walsh'
p243
I4629
sS'hardens'
p244
I1935
sS'seoul'
p245
I3809
sS'counseling'
p246
I1012
sS'keep'
p247
I2346
sS'cites'
p248
I826
sS'world'
p249
I4757
sS'scales'
p250
I3731
sS'sought'
p251
I3975
sS'end'
p252
I1450
sS'recovery'
p253
I3457
sS'hindus'
p254
I2011
sS'provide'
p255
I3325
sS'agony'
p256
I176
sS'spreading'
p257
I4018
sS'sitting'
p258
I3908
sS'damage'
p259
I1097
sS'machine'
p260
I2571
sS'how'
p261
I2070
sS'amazing'
p262
I225
sS'writers'
p263
I4780
sS'accusations'
p264
I107
sS'answer'
p265
I257
sS'beach'
p266
I462
sS'horror'
p267
I2056
sS'badly'
p268
I416
sS'wise'
p269
I4732
sS'rise'
p270
I3627
sS'pig'
p271
I3146
sS'minority'
p272
I2722
sS'coined'
p273
I877
sS'after'
p274
I165
sS'confirmed'
p275
I941
sS'top'
p276
I4341
sS'wrong'
p277
I4782
sS'floated'
p278
I1676
sS'president'
p279
I3256
sS'law'
p280
I2426
sS'steve'
p281
I4070
sS'las'
p282
I2410
sS'testify'
p283
I4258
sS'attempt'
p284
I367
sS'third'
p285
I4288
sS'amid'
p286
I233
sS'revolt'
p287
I3594
sS'deutsche'
p288
I1242
sS'scare'
p289
I3740
sS'sickening'
p290
I3887
sS'greek'
p291
I1859
sS'shocker'
p292
I3860
sS'green'
p293
I1860
sS'south'
p294
I3981
sS'deepens'
p295
I1164
sS'worst'
p296
I4764
sS'democratic'
p297
I1194
sS'order'
p298
I3004
sS'turns'
p299
I4444
sS'slashing'
p300
I3927
sS'unknowable'
p301
I4499
sS'nyc'
p302
I2939
sS'executed'
p303
I1525
sS'flynns'
p304
I1683
sS'office'
p305
I2960
sS'deck'
p306
I1154
sS'welcomed'
p307
I4680
sS'over'
p308
I3027
sS'gettysburg'
p309
I1787
sS'sponsor'
p310
I4011
sS'voice'
p311
I4599
sS'london'
p312
I2538
sS'japan'
p313
I2272
sS'owens'
p314
I3034
sS'mayor'
p315
I2642
sS'before'
p316
I477
sS'some'
p317
I3965
sS'licitation'
p318
I2485
sS'fit'
p319
I1657
sS'hypocrisy'
p320
I2092
sS'personal'
p321
I3116
sS'disneys'
p322
I1290
sS'fix'
p323
I1660
sS'christie'
p324
I817
sS'twitter'
p325
I4453
sS'destroyed'
p326
I1235
sS'edits'
p327
I1405
sS'production'
p328
I3284
sS'irans'
p329
I2238
sS'stalemate'
p330
I4035
sS'hidden'
p331
I1998
sS'split'
p332
I4007
sS'versus'
p333
I4559
sS'donors'
p334
I1336
sS'coffee'
p335
I875
sS'affected'
p336
I157
sS'sane'
p337
I3711
sS'bans'
p338
I438
sS'powerful'
p339
I3234
sS'safe'
p340
I3693
sS'roost'
p341
I3658
sS'intimidation'
p342
I2218
sS'break'
p343
I603
sS'bang'
p344
I429
sS'therapy'
p345
I4277
sS'effects'
p346
I1409
sS'they'
p347
I4281
sS'schools'
p348
I3748
sS'yourself'
p349
I4805
sS'lifelong'
p350
I2490
sS'bank'
p351
I432
sS'semen'
p352
I3799
sS'represents'
p353
I3542
sS'rhetoric'
p354
I3600
sS'alex'
p355
I199
sS'miltary'
p356
I2712
sS'classified'
p357
I842
sS'arrested'
p358
I323
sS'chuck'
p359
I821
sS'armoured'
p360
I317
sS'dumps'
p361
I1380
sS'mcfaul'
p362
I2649
sS'mcfarland'
p363
I2648
sS'roast'
p364
I3635
sS'each'
p365
I1386
sS'370'
p366
I45
sS'went'
p367
I4685
sS'higher'
p368
I2002
sS'reminders'
p369
I3511
sS'bone'
p370
I575
sS'alec'
p371
I195
sS'candy'
p372
I703
sS'signing'
p373
I3896
sS'financial'
p374
I1641
sS'independent'
p375
I2159
sS'councils'
p376
I1010
sS'series'
p377
I3811
sS'train'
p378
I4370
sS'crimes'
p379
I1050
sS'aide'
p380
I183
sS'literature'
p381
I2512
sS'victims'
p382
I4571
sS'forgot'
p383
I1705
sS'pocahontas'
p384
I3182
sS'magazine'
p385
I2580
sS'ghosts'
p386
I1790
sS'rebuts'
p387
I3439
sS'gol'
p388
I1823
sS'gon'
p389
I1828
sS'kiev'
p390
I2365
sS'driving'
p391
I1367
sS'pussies'
p392
I3354
sS'god'
p393
I1819
sS'tried'
p394
I4391
sS'crucial'
p395
I1066
sS'lurks'
p396
I2566
sS'mccarthy'
p397
I2646
sS're'
p398
I3416
sS'100mln'
p399
I6
sS'daniel'
p400
I1106
sS'got'
p401
I1836
sS'gov'
p402
I1838
sS'strategist'
p403
I4090
sS'gop'
p404
I1831
sS'independence'
p405
I2158
sS'foundation'
p406
I1711
sS'abbott'
p407
I81
sS'arizona'
p408
I311
sS'turning'
p409
I4442
sS'hemorrhaging'
p410
I1989
sS'barrier'
p411
I446
sS'resume'
p412
I3576
sS'icke'
p413
I2099
sS'tops'
p414
I4343
sS'kilcullens'
p415
I2367
sS'pauline'
p416
I3090
sS'little'
p417
I2513
sS'free'
p418
I1724
sS'mourning'
p419
I2791
sS'admits'
p420
I140
sS'thieves'
p421
I4282
sS'trumpcare'
p422
I4407
sS'disputes'
p423
I1295
sS'tirade'
p424
I4324
sS'boosting'
p425
I583
sS'alert'
p426
I197
sS'storm'
p427
I4084
sS'unauthorized'
p428
I4467
sS'personalities'
p429
I3117
sS'papadopoulos'
p430
I3058
sS'elecciones'
p431
I1415
sS'dodger'
p432
I1317
sS'exposing'
p433
I1550
sS'starts'
p434
I4047
sS'refugee'
p435
I3471
sS'uncompliant'
p436
I4471
sS'correctness'
p437
I1003
sS'days'
p438
I1123
sS'vegas'
p439
I4552
sS'tolerant'
p440
I4331
sS'creates'
p441
I1043
sS'where'
p442
I4694
sS'renew'
p443
I3514
sS'disturbed'
p444
I1303
sS'oppose'
p445
I2995
sS'tied'
p446
I4309
sS'uses'
p447
I4534
sS'footsteps'
p448
I1694
sS'clouding'
p449
I861
sS'stewart'
p450
I4071
sS'appeals'
p451
I283
sS'nigel'
p452
I2900
sS'features'
p453
I1613
sS'economists'
p454
I1399
sS'grade'
p455
I1846
sS'attractions'
p456
I375
sS'reassure'
p457
I3433
sS'petraeus'
p458
I3126
sS'hearing'
p459
I1973
sS'channels'
p460
I776
sS'hook'
p461
I2045
sS'disappearing'
p462
I1268
sS'another'
p463
I255
sS'knight'
p464
I2381
sS'scissors'
p465
I3754
sS'comic'
p466
I895
sS'clarity'
p467
I838
sS'electronic'
p468
I1426
sS'withheld'
p469
I4739
sS'brock'
p470
I627
sS'yuan'
p471
I4808
sS'lecturing'
p472
I2451
sS'revival'
p473
I3591
sS'lego'
p474
I2462
sS'iannucci'
p475
I2096
sS'hawks'
p476
I1961
sS'returns'
p477
I3580
sS'approximately'
p478
I301
sS'touting'
p479
I4358
sS'2'
I21
sS'ballistic'
p480
I425
sS'listed'
p481
I2508
sS'xiv'
p482
I4790
sS'phones'
p483
I3137
sS'viral'
p484
I4587
sS'tragic'
p485
I4369
sS'hollywood'
p486
I2036
sS'john'
p487
I2299
sS'bitter'
p488
I535
sS'dogs'
p489
I1322
sS'damaging'
p490
I1100
sS'listen'
p491
I2509
sS'urban'
p492
I4524
sS'murder'
p493
I2813
sS'collapse'
p494
I879
sS'haga'
p495
I1905
sS'gym'
p496
I1899
sS'brushes'
p497
I638
sS'leaking'
p498
I2439
sS'stake'
p499
I4033
sS'negotiating'
p500
I2866
sS'chairwoman'
p501
I764
sS'sweets'
p502
I4178
sS'innocent'
p503
I2185
sS'regierungsbildung'
p504
I3475
sS'abandoning'
p505
I79
sS'brushed'
p506
I637
sS'white'
p507
I4703
sS'begins'
p508
I480
sS'distance'
p509
I1298
sS'trumponomics'
p510
I4418
sS'anxiety'
p511
I266
sS'fuelled'
p512
I1740
sS'target'
p513
I4217
sS'showed'
p514
I3878
sS'nominate'
p515
I2909
sS'coward'
p516
I1031
sS'immigrants'
p517
I2124
sS'likely'
p518
I2494
sS'medley'
p519
I2661
sS'nations'
p520
I2849
sS'preparation'
p521
I3250
sS'matter'
p522
I2637
sS'persuade'
p523
I3120
sS'portrays'
p524
I3218
sS'hacking'
p525
I1903
sS'powers'
p526
I3235
sS'bridge'
p527
I616
sS'youre'
p528
I4804
sS'apra'
p529
I302
sS'ran'
p530
I3396
sS'modern'
p531
I2755
sS'mind'
p532
I2713
sS'assange'
p533
I343
sS'gaslighting'
p534
I1770
sS'outperforms'
p535
I3022
sS'referred'
p536
I3467
sS'resettlement'
p537
I3552
sS'rap'
p538
I3404
sS'screws'
p539
I3766
sS'picks'
p540
I3142
sS'seek'
p541
I3786
sS'tells'
p542
I4240
sS'affairs'
p543
I155
sS'releases'
p544
I3497
sS'rabbi'
p545
I3377
sS'loathing'
p546
I2525
sS'cheer'
p547
I793
sS'hamper'
p548
I1917
sS'wrecks'
p549
I4775
sS'causing'
p550
I743
sS'chess'
p551
I799
sS'doors'
p552
I1342
sS'hatch'
p553
I1941
sS'gorka'
p554
I1834
sS'rides'
p555
I3609
sS'kremlin'
p556
I2390
sS'subpoena'
p557
I4114
sS'concedes'
p558
I929
sS'45th'
p559
I50
sS'nobody'
p560
I2908
sS'optimistic'
p561
I3001
sS'committing'
p562
I908
sS'bruce'
p563
I636
sS'proving'
p564
I3326
sS'it'
p565
I2258
sS'mother'
p566
I2785
sS'quit'
p567
I3372
sS'sanctioned'
p568
I3706
sS'flashback'
p569
I1667
sS'defence'
p570
I1169
sS'germany'
p571
I1783
sS'letter'
p572
I2469
sS'commanding'
p573
I898
sS'electionnight'
p574
I1420
sS'panic'
p575
I3056
sS'the'
p576
I4269
sS'exonerate'
p577
I1530
sS'slides'
p578
I3933
sS'stupid'
p579
I4110
sS'episode'
p580
I1478
sS'released'
p581
I3496
sS'alarm'
p582
I192
sS'devastating'
p583
I1243
sS'm'
I2569
sS'dog'
p584
I1321
sS'spend'
p585
I3999
sS'makati'
p586
I2586
sS'points'
p587
I3190
sS'tech'
p588
I4234
sS'women'
p589
I4744
sS'pimco'
p590
I3149
sS'left'
p591
I2453
sS'dow'
p592
I1346
sS'came'
p593
I686
sS'reserve'
p594
I3550
sS'advisory'
p595
I151
sS'pardoned'
p596
I3064
sS'aryan'
p597
I331
sS'pope'
p598
I3207
sS'distances'
p599
I1299
sS'saga'
p600
I3694
sS'meetings'
p601
I2665
sS'advisors'
p602
I150
sS'writeoff'
p603
I4779
sS'sexist'
p604
I3826
sS'radio'
p605
I3385
sS'liberty'
p606
I2481
sS'tacitly'
p607
I4197
sS'lethal'
p608
I2468
sS'earth'
p609
I1388
sS'speech'
p610
I3996
sS'nevada'
p611
I2883
sS'refusing'
p612
I3474
sS'domicilio'
p613
I1327
sS'lessons'
p614
I2466
sS'parodies'
p615
I3070
sS'judges'
p616
I2319
sS'venezuela'
p617
I4555
sS'proposed'
p618
I3307
sS'judgey'
p619
I2320
sS'menu'
p620
I2682
sS'explain'
p621
I1538
sS'decry'
p622
I1162
sS'wasting'
p623
I4648
sS'kathy'
p624
I2341
sS'rico'
p625
I3606
sS'bush'
p626
I656
sS'screening'
p627
I3765
sS'rich'
p628
I3603
sS'souriant'
p629
I3980
sS'jailed'
p630
I2267
sS'lady'
p631
I2401
sS'do'
p632
I1313
sS'wide'
p633
I4711
sS'rwnj'
p634
I3682
sS'de'
p635
I1126
sS'pleads'
p636
I3173
sS'dc'
p637
I1125
sS'coast'
p638
I872
sS'supporter'
p639
I4143
sS'ultimatum'
p640
I4463
sS'christopher'
p641
I819
sS'staunch'
p642
I4057
sS'despite'
p643
I1233
sS'report'
p644
I3535
sS'nasty'
p645
I2845
sS'du'
p646
I1372
sS'dr'
p647
I1349
sS'tips'
p648
I4323
sS'suffers'
p649
I4129
sS'shaking'
p650
I3835
sS'bar'
p651
I439
sS'gareth'
p652
I1769
sS'autistic'
p653
I384
sS'covering'
p654
I1029
sS'nicely'
p655
I2896
sS'ever'
p656
I1512
sS'tribute'
p657
I4389
sS'baz'
p658
I458
sS'gather'
p659
I1771
sS'twice'
p660
I4451
sS'bad'
p661
I413
sS'erupt'
p662
I1487
sS'seeks'
p663
I3788
sS'shots'
p664
I3870
sS'ban'
p665
I428
sS'estados'
p666
I1496
sS'told'
p667
I4330
sS'lavrov'
p668
I2425
sS'saul'
p669
I3719
sS'decides'
p670
I1150
sS'disaster'
p671
I1270
sS'fair'
p672
I1578
sS'diplomatic'
p673
I1262
sS'reported'
p674
I3536
sS'testing'
p675
I4260
sS'musk'
p676
I2821
sS'opposite'
p677
I2998
sS'williams'
p678
I4720
sS'decided'
p679
I1149
sS'result'
p680
I3574
sS'dillary'
p681
I1259
sS'cattle'
p682
I736
sS'discussions'
p683
I1280
sS'iran'
p684
I2236
sS'swedes'
p685
I4173
sS'best'
p686
I503
sS'clarifies'
p687
I836
sS'pete'
p688
I3123
sS'roberts'
p689
I3641
sS'00'
p690
I1
sS'co2'
p691
I868
sS'draws'
p692
I1359
sS'grattan'
p693
I1854
sS'inappropriate'
p694
I2147
sS'away'
p695
I398
sS'artificial'
p696
I329
sS'globalism'
p697
I1808
sS'pissed'
p698
I3154
sS'mug'
p699
I2806
sS'finger'
p700
I1648
sS'cooperation'
p701
I990
sS'hopefully'
p702
I2049
sS'drawn'
p703
I1358
sS'sorts'
p704
I3974
sS'encounters'
p705
I1447
sS'preserve'
p706
I3254
sS'suepennontwitte'
p707
I4126
sS'accord'
p708
I103
sS'men'
p709
I2678
sS'parallels'
p710
I3062
sS'nationwide'
p711
I2850
sS'vows'
p712
I4613
sS'rolled'
p713
I3652
sS'deposed'
p714
I1217
sS'downgrades'
p715
I1348
sS'restricting'
p716
I3571
sS'weak'
p717
I4662
sS'supports'
p718
I4146
sS'blitzer'
p719
I550
sS'ww'
p720
I4786
sS'admirals'
p721
I137
sS'deby'
p722
I1144
sS'news'
p723
I2889
sS'vomiting'
p724
I4604
sS'marines'
p725
I2618
sS'blasted'
p726
I544
sS'electing'
p727
I1418
sS'faced'
p728
I1566
sS'cop'
p729
I991
sS'climate'
p730
I849
sS'cor'
p731
I994
sS'veep'
p732
I4551
sS'covfefe'
p733
I1030
sS'coy'
p734
I1033
sS'country'
p735
I1021
sS'ill'
p736
I2113
sS'uncertainty'
p737
I4469
sS'deletions'
p738
I1182
sS'strange'
p739
I4089
sS'against'
p740
I168
sS'sympathises'
p741
I4189
sS'players'
p742
I3168
sS'games'
p743
I1765
sS'devotion'
p744
I1249
sS'randy'
p745
I3398
sS'brad'
p746
I597
sS'uni'
p747
I4490
sS'requests'
p748
I3548
sS'obamas'
p749
I2946
sS'asked'
p750
I337
sS'con'
p751
I927
sS'pre'
p752
I3241
sS'nikki'
p753
I2903
sS'tone'
p754
I4335
sS'radikale'
p755
I3384
sS'memo'
p756
I2675
sS'epidemic'
p757
I1477
sS'cult'
p758
I1075
sS'259'
p759
I31
sS'marmite'
p760
I2622
sS'globalists'
p761
I1810
sS'resignation'
p762
I3554
sS'hitler'
p763
I2022
sS'san'
p764
I3705
sS'conference'
p765
I934
sS'aback'
p766
I77
sS'strong'
p767
I4101
sS'recognises'
p768
I3447
sS'asks'
p769
I339
sS'source'
p770
I3978
sS'chrome'
p771
I820
sS'wei'
p772
I4674
sS'victimizing'
p773
I4570
sS'criticised'
p774
I1057
sS'been'
p775
I476
sS'cyrus'
p776
I1088
sS'newt'
p777
I2891
sS'confident'
p778
I938
sS'gillibrand'
p779
I1794
sS'much'
p780
I2804
sS'fahrenthold'
p781
I1573
sS'interest'
p782
I2208
sS'expected'
p783
I1533
sS'criticises'
p784
I1058
sS'deportations'
p785
I1215
sS'website'
p786
I4668
sS'obese'
p787
I2947
sS'life'
p788
I2489
sS'premier'
p789
I3249
sS'anchors'
p790
I240
sS'attacked'
p791
I363
sS'hospitalized'
p792
I2058
sS'dismiss'
p793
I1285
sS'worker'
p794
I4753
sS'speeches'
p795
I3997
sS'marijuana'
p796
I2616
sS'attacker'
p797
I364
sS'dave'
p798
I1119
sS'kids'
p799
I2364
sS'child'
p800
I802
sS'catch'
p801
I733
sS'tradition'
p802
I4368
sS'endingfed'
p803
I1451
sS'convening'
p804
I985
sS'commerce'
p805
I902
sS'has'
p806
I1939
sS'tank'
p807
I4212
sS'backdown'
p808
I406
sS'presidency'
p809
I3255
sS'affirm'
p810
I158
sS'launches'
p811
I2424
sS'heartland'
p812
I1976
sS'economies'
p813
I1397
sS'castro'
p814
I730
sS'air'
p815
I186
sS'aim'
p816
I184
sS'near'
p817
I2859
sS'conspiracy'
p818
I967
sS'depp'
p819
I1219
sS'aid'
p820
I182
sS'hater'
p821
I1944
sS'leaves'
p822
I2446
sS'chilling'
p823
I804
sS'mistake'
p824
I2740
sS'unease'
p825
I4482
sS'cons'
p826
I958
sS'project'
p827
I3292
sS'crowning'
p828
I1065
sS'whine'
p829
I4697
sS'is'
p830
I2243
sS'dumped'
p831
I1379
sS'indonesian'
p832
I2169
sS'defeated'
p833
I1167
sS'skipping'
p834
I3917
sS'cant'
p835
I704
sS'mocked'
p836
I2751
sS'experts'
p837
I1537
sS'brutal'
p838
I640
sS'ramifications'
p839
I3393
sS'impersonators'
p840
I2132
sS'campaigning'
p841
I690
sS'tackles'
p842
I4198
sS'ignoring'
p843
I2110
sS'sells'
p844
I3798
sS'if'
p845
I2104
sS'rapprochement'
p846
I3408
sS'damaged'
p847
I1098
sS'spy'
p848
I4023
sS'soldier'
p849
I3962
sS'border'
p850
I585
sS'make'
p851
I2587
sS'who'
p852
I4707
sS'shares'
p853
I3842
sS'craigslist'
p854
I1037
sS'complex'
p855
I924
sS'damages'
p856
I1099
sS'avoids'
p857
I392
sS'yearns'
p858
I4794
sS'several'
p859
I3824
sS'confronting'
p860
I948
sS'grows'
p861
I1879
sS'european'
p862
I1502
sS'fairly'
p863
I1579
sS'livre'
p864
I2519
sS'views'
p865
I4579
sS'marches'
p866
I2614
sS'kushner'
p867
I2393
sS'blames'
p868
I542
sS'published'
p869
I3336
sS'hang'
p870
I1924
sS'hand'
p871
I1918
sS'slovenia'
p872
I3937
sS'documents'
p873
I1315
sS'bloomberg'
p874
I556
sS'military'
p875
I2707
sS'opportunity'
p876
I2994
sS'blamed'
p877
I541
sS'understand'
p878
I4478
sS'priebus'
p879
I3268
sS'wadah'
p880
I4619
sS'possibly'
p881
I3223
sS'performance'
p882
I3112
sS'charlie'
p883
I786
sS'failing'
p884
I1576
sS'inherit'
p885
I2183
sS'changer'
p886
I773
sS'hispanic'
p887
I2015
sS'contact'
p888
I974
sS'greatest'
p889
I1857
sS'protesters'
p890
I3317
sS'easily'
p891
I1390
sS'claims'
p892
I835
sS'alabama'
p893
I191
sS'corporate'
p894
I1000
sS'musical'
p895
I2820
sS'epa'
p896
I1475
sS'spurred'
p897
I4021
sS'welcomes'
p898
I4681
sS'just'
p899
I2332
sS'shapiro'
p900
I3839
sS'photo'
p901
I3138
sS'pentagon'
p902
I3106
sS'terrorist'
p903
I4253
sS'proposes'
p904
I3308
sS'fighters'
p905
I1632
sS'financially'
p906
I1642
sS'thanks'
p907
I4266
sS'human'
p908
I2077
sS'facts'
p909
I1572
sS'ridiculed'
p910
I3610
sS'october'
p911
I2952
sS'tattooed'
p912
I4223
sS'yet'
p913
I4798
sS'previous'
p914
I3265
sS'chaffetz'
p915
I760
sS'handshake'
p916
I1921
sS'unique'
p917
I4494
sS'blowback'
p918
I558
sS'candidate'
p919
I700
sS'similarities'
p920
I3900
sS'ease'
p921
I1389
sS'assassination'
p922
I347
sS'had'
p923
I1904
sS'mask'
p924
I2626
sS'exploits'
p925
I1542
sS'nwo'
p926
I2937
sS'recreates'
p927
I3458
sS'board'
p928
I565
sS'easy'
p929
I1393
sS'plans'
p930
I3164
sS'pointing'
p931
I3189
sS'east'
p932
I1391
sS'hat'
p933
I1940
sS'gave'
p934
I1773
sS'threatens'
p935
I4296
sS'explained'
p936
I1539
sS'casting'
p937
I729
sS'skeptics'
p938
I3912
sS'rnc'
p939
I3632
sS'breaks'
p940
I606
sS'possible'
p941
I3222
sS'arab'
p942
I304
sS'jekyll'
p943
I2278
sS'bastards'
p944
I452
sS'barge'
p945
I442
sS'newcastle'
p946
I2887
sS'judge'
p947
I2318
sS'replace'
p948
I3528
sS'vetting'
p949
I4565
sS'apart'
p950
I274
sS'county'
p951
I1022
sS'gift'
p952
I1792
sS'glitch'
p953
I1806
sS'hunt'
p954
I2082
sS'50'
p955
I53
sS'universe'
p956
I4497
sS'remind'
p957
I3510
sS'own'
p958
I3036
sS'steps'
p959
I4068
sS'officer'
p960
I2961
sS'zombies'
p961
I4818
sS'follows'
p962
I1689
sS'security'
p963
I3783
sS'sebastian'
p964
I3776
sS'release'
p965
I3495
sS'antique'
p966
I264
sS'attorney'
p967
I373
sS'right'
p968
I3615
sS'dean'
p969
I1136
sS'crowd'
p970
I1062
sS'people'
p971
I3107
sS'sends'
p972
I3805
sS'sonntagsfrage'
p973
I3969
sS'dead'
p974
I1129
sS'jennifer'
p975
I2280
sS'donald'
p976
I1332
sS'sure'
p977
I4153
sS'election'
p978
I1419
sS'displeasure'
p979
I1293
sS'dear'
p980
I1137
sS'sisi'
p981
I3906
sS'denies'
p982
I1201
sS'congratulate'
p983
I951
sS'combat'
p984
I889
sS'for'
p985
I1695
sS'purple'
p986
I3348
sS'centre'
p987
I756
sS'fox'
p988
I1715
sS'inside'
p989
I2189
sS'comments'
p990
I901
sS'week'
p991
I4670
sS'mulls'
p992
I2808
sS'everything'
p993
I1515
sS'queen'
p994
I3366
sS'almanach'
p995
I214
sS'frum'
p996
I1735
sS'cnn'
p997
I867
sS'beating'
p998
I467
sS'christmas'
p999
I818
sS'sarah'
p1000
I3714
sS'particular'
p1001
I3073
sS'knew'
p1002
I2379
sS'bold'
p1003
I570
sS'ww3'
p1004
I4787
sS'deleted'
p1005
I1181
sS'burn'
p1006
I653
sS'speak'
p1007
I3990
sS'discount'
p1008
I1274
sS'criminals'
p1009
I1051
sS'provocations'
p1010
I3327
sS'losing'
p1011
I2552
sS'guild'
p1012
I1889
sS'post'
p1013
I3224
sS'manufacturing'
p1014
I2606
sS'super'
p1015
I4138
sS'yoko'
p1016
I4799
sS'zur'
p1017
I4822
sS'banked'
p1018
I433
sS'would'
p1019
I4767
sS'derailed'
p1020
I1223
sS'attacks'
p1021
I366
sS'months'
p1022
I2767
sS'accepts'
p1023
I99
sS'mocking'
p1024
I2752
sS'collett'
p1025
I885
sS'undocumented'
p1026
I4481
sS'dinner'
p1027
I1260
sS'misleading'
p1028
I2729
sS'dutton'
p1029
I1384
sS'guilty'
p1030
I1890
sS'mismo'
p1031
I2730
sS'commit'
p1032
I904
sS'palestinians'
p1033
I3051
sS'curry'
p1034
I1080
sS'meddle'
p1035
I2658
sS'bannon'
p1036
I437
sS'correspondents'
p1037
I1004
sS'raised'
p1038
I3389
sS'donates'
p1039
I1334
sS'statements'
p1040
I4050
sS'lied'
p1041
I2487
sS'civil'
p1042
I829
sS'methepeople'
p1043
I2691
sS'vorhaben'
p1044
I4605
sS'profession'
p1045
I3287
sS'snake'
p1046
I3947
sS'cauldron'
p1047
I739
sS'negative'
p1048
I2865
sS'down'
p1049
I1347
sS'lies'
p1050
I2488
sS'show'
p1051
I3875
sS'raises'
p1052
I3390
sS'armada'
p1053
I313
sS'honored'
p1054
I2042
sS'seraient'
p1055
I3810
sS'soon'
p1056
I3971
sS'shifted'
p1057
I3850
sS'rely'
p1058
I3502
sS'deal'
p1059
I1131
sS'comparing'
p1060
I920
sS'transcript'
p1061
I4372
sS'support'
p1062
I4141
sS'vision'
p1063
I4592
sS'fight'
p1064
I1631
sS'ramps'
p1065
I3395
sS'stuck'
p1066
I4103
sS'anderson'
p1067
I242
sS'joseph'
p1068
I2312
sS'winning'
p1069
I4726
sS'editor'
p1070
I1404
sS'way'
p1071
I4659
sS'greatness'
p1072
I1858
sS'music'
p1073
I2819
sS'was'
p1074
I4643
sS'war'
p1075
I4633
sS'ten'
p1076
I4243
sS'happy'
p1077
I1932
sS'sliding'
p1078
I3934
sS'head'
p1079
I1963
sS'washed'
p1080
I4644
sS'offer'
p1081
I2957
sS'something'
p1082
I3966
sS'attempted'
p1083
I368
sS'becoming'
p1084
I473
sS'differences'
p1085
I1256
sS'sickest'
p1086
I3888
sS'ford'
p1087
I1699
sS'garages'
p1088
I1767
sS'heat'
p1089
I1978
sS'seguir'
p1090
I3791
sS'hear'
p1091
I1970
sS'lows'
p1092
I2560
sS'melania'
p1093
I2670
sS'survive'
p1094
I4161
sS'spokesperson'
p1095
I4009
sS'tasmania'
p1096
I4221
sS'removed'
p1097
I3512
sS'true'
p1098
I4405
sS'humiliate'
p1099
I2078
sS'reset'
p1100
I3551
sS'counsel'
p1101
I1011
sS'isis'
p1102
I2244
sS'veiled'
p1103
I4554
sS'happen'
p1104
I1928
sS'emin'
p1105
I1439
sS'baldwins'
p1106
I420
sS'staged'
p1107
I4032
sS'clubs'
p1108
I865
sS'peso'
p1109
I3122
sS'cloughley'
p1110
I862
sS'hegemony'
p1111
I1981
sS'pilger'
p1112
I3147
sS'scream'
p1113
I3762
sS'panels'
p1114
I3055
sS'wrought'
p1115
I4784
sS'propaganda'
p1116
I3303
sS'delete'
p1117
I1180
sS'repartis'
p1118
I3522
sS'150'
p1119
I12
sS'hotlines'
p1120
I2065
sS'bedouin'
p1121
I474
sS'liberal'
p1122
I2476
sS'moore'
p1123
I2771
sS'scandalous'
p1124
I3735
sS'fury'
p1125
I1754
sS'upset'
p1126
I4522
sS'stein'
p1127
I4063
sS'proven'
p1128
I3323
sS'evidence'
p1129
I1517
sS'proves'
p1130
I3324
sS'promised'
p1131
I3296
sS'valentin'
p1132
I4541
sS'elon'
p1133
I1431
sS'petition'
p1134
I3125
sS'check'
p1135
I790
sS'liberalism'
p1136
I2477
sS'style'
p1137
I4111
sS'vertical'
p1138
I4560
sS'palestinian'
p1139
I3050
sS'no'
p1140
I2906
sS'daca'
p1141
I1090
sS'nc'
p1142
I2857
sS'tip'
p1143
I4321
sS'jitters'
p1144
I2294
sS'actor'
p1145
I123
sS'reality'
p1146
I3429
sS'power'
p1147
I3233
sS'ny'
p1148
I2938
sS'setting'
p1149
I3821
sS'jong'
p1150
I2309
sS'protester'
p1151
I3316
sS'holding'
p1152
I2031
sS'test'
p1153
I4256
sS'tie'
p1154
I4308
sS'transgender'
p1155
I4374
sS'bossie'
p1156
I589
sS'nt'
p1157
I2931
sS'regrettable'
p1158
I3480
sS'w'
I4617
sS'll'
p1159
I2520
sS'brothers'
p1160
I633
sS'phoenix'
p1161
I3135
sS'irma'
p1162
I2241
sS'wing'
p1163
I4724
sS'dies'
p1164
I1255
sS'why'
p1165
I4710
sS'felt'
p1166
I1620
sS'update'
p1167
I4518
sS'devos'
p1168
I1247
sS'journey'
p1169
I2315
sS'rising'
p1170
I3629
sS'miranda'
p1171
I2726
sS'rolling'
p1172
I3653
sS'shatters'
p1173
I3846
sS'hurt'
p1174
I2086
sS'seeing'
p1175
I3785
sS'derail'
p1176
I1222
sS'billion'
p1177
I524
sS'warn'
p1178
I4637
sS'sanctions'
p1179
I3707
sS'happening'
p1180
I1930
sS'apology'
p1181
I278
sS'tested'
p1182
I4257
sS'sacks'
p1183
I3691
sS'recognising'
p1184
I3448
sS'psychopath'
p1185
I3332
sS'daily'
p1186
I1094
sS'tussauds'
p1187
I4445
sS'uncovered'
p1188
I4473
sS'priming'
p1189
I3274
sS'kgb'
p1190
I2353
sS'teeth'
p1191
I4235
sS'push'
p1192
I3351
sS'serious'
p1193
I3812
sS'overturned'
p1194
I3032
sS'anglican'
p1195
I247
sS'coach'
p1196
I869
sS'ron'
p1197
I3656
sS'diplomacy'
p1198
I1261
sS'dance'
p1199
I1102
sS'skip'
p1200
I3916
sS'cking'
p1201
I833
sS'activated'
p1202
I118
sS'fabricated'
p1203
I1563
sS'hawaii'
p1204
I1957
sS'leads'
p1205
I2436
sS'muss'
p1206
I2826
sS'manager'
p1207
I2597
sS'ice'
p1208
I2098
sS'skin'
p1209
I3915
sS'battle'
p1210
I455
sS'milo'
p1211
I2711
sS'chair'
p1212
I762
sS'primer'
p1213
I3272
sS'soros'
p1214
I3972
sS'row'
p1215
I3662
sS'vet'
p1216
I4562
sS'anticipation'
p1217
I263
sS'praises'
p1218
I3238
sS'system'
p1219
I4193
sS'meryl'
p1220
I2685
sS'rousing'
p1221
I3660
sS'glenn'
p1222
I1805
sS'father'
p1223
I1604
sS'aspi'
p1224
I340
sS'passage'
p1225
I3079
sS'countdown'
p1226
I1015
sS'0'
I0
sS'charge'
p1227
I781
sS'asking'
p1228
I338
sS'promoting'
p1229
I3300
sS'whining'
p1230
I4699
sS'devotes'
p1231
I1248
sS'terror'
p1232
I4251
sS'dartmouth'
p1233
I1111
sS'moron'
p1234
I2776
sS'must'
p1235
I2827
sS'oversight'
p1236
I3031
sS'ride'
p1237
I3607
sS'henderson'
p1238
I1990
sS'advises'
p1239
I148
sS'adviser'
p1240
I146
sS'supported'
p1241
I4142
sS'una'
p1242
I4465
sS'advantage'
p1243
I144
sS'billionaire'
p1244
I525
sS'keeping'
p1245
I2347
sS'choice'
p1246
I808
sS'intolerant'
p1247
I2220
sS'ckhalten'
p1248
I832
sS'street'
p1249
I4093
sS'defying'
p1250
I1177
sS'anonymous'
p1251
I254
sS'locked'
p1252
I2531
sS'trouble'
p1253
I4400
sS'exact'
p1254
I1519
sS'minute'
p1255
I2723
sS'responders'
p1256
I3563
sS'photoshops'
p1257
I3139
sS'did'
p1258
I1252
sS'die'
p1259
I1254
sS'philippines'
p1260
I3134
sS'rights'
p1261
I3618
sS'posts'
p1262
I3228
sS'democrat'
p1263
I1193
sS'standards'
p1264
I4040
sS'bikers'
p1265
I521
sS'p'
I3039
sS'holliday'
p1266
I2033
sS'settle'
p1267
I3822
sS'denounces'
p1268
I1203
sS'team'
p1269
I4233
sS'dit'
p1270
I1304
sS'guy'
p1271
I1898
sS'farren'
p1272
I1600
sS'qanda'
p1273
I3363
sS'pork'
p1274
I3213
sS'brave'
p1275
I601
sS'says'
p1276
I3729
sS'fearing'
p1277
I1610
sS'findings'
p1278
I1645
sS'pms'
p1279
I3181
sS'trend'
p1280
I4386
sS'dealing'
p1281
I1132
sS'discover'
p1282
I1276
sS'cyber'
p1283
I1086
sS'overhaul'
p1284
I3028
sS'cost'
p1285
I1006
sS'catatonic'
p1286
I732
sS'pedo'
p1287
I3099
sS'theories'
p1288
I4275
sS'targets'
p1289
I4219
sS'goes'
p1290
I1820
sS'afghanistan'
p1291
I162
sS'appear'
p1292
I284
sS'g20'
p1293
I1757
sS'favour'
p1294
I1607
sS'havoc'
p1295
I1956
sS'agrees'
p1296
I179
sS'daft'
p1297
I1093
sS'suspect'
p1298
I4163
sS'freaks'
p1299
I1723
sS'international'
p1300
I2210
sS'falling'
p1301
I1584
sS'appeal'
p1302
I282
sS'axed'
p1303
I400
sS'cranston'
p1304
I1038
sS'supporting'
p1305
I4145
sS'gunners'
p1306
I1892
sS'processing'
p1307
I3283
sS'jury'
p1308
I2331
sS'install'
p1309
I2197
sS'guardian'
p1310
I1885
sS'inauguration'
p1311
I2149
sS'muslim'
p1312
I2824
sS'french'
p1313
I1727
sS'whiteness'
p1314
I4705
sS'water'
p1315
I4652
sS'paypal'
p1316
I3094
sS'groups'
p1317
I1876
sS'address'
p1318
I131
sS'alone'
p1319
I216
sS'muskets'
p1320
I2823
sS'teaches'
p1321
I4232
sS'appears'
p1322
I286
sS'change'
p1323
I771
sS'wait'
p1324
I4621
sS'shared'
p1325
I3841
sS'assassinating'
p1326
I346
sS'shove'
p1327
I3874
sS'canadian'
p1328
I693
sS'brilliant'
p1329
I620
sS'pena'
p1330
I3101
sS'bot'
p1331
I590
sS'step'
p1332
I4065
sS'trial'
p1333
I4388
sS'accomplished'
p1334
I102
sS'franklin'
p1335
I1721
sS'suggestion'
p1336
I4131
sS'patriotic'
p1337
I3087
sS'priceless'
p1338
I3267
sS'bob'
p1339
I566
sS'airbase'
p1340
I187
sS'pillow'
p1341
I3148
sS'elect'
p1342
I1416
sS'hopeful'
p1343
I2048
sS'sign'
p1344
I3891
sS'russians'
p1345
I3680
sS'unsettled'
p1346
I4511
sS'wreak'
p1347
I4773
sS'bribery'
p1348
I614
sS'fake'
p1349
I1581
sS'scam'
p1350
I3732
sS'fbi'
p1351
I1608
sS'softens'
p1352
I3960
sS'crisis'
p1353
I1053
sS'market'
p1354
I2620
sS'red'
p1355
I3460
sS'sledgehammer'
p1356
I3930
sS'negress'
p1357
I2868
sS'troops'
p1358
I4399
sS'working'
p1359
I4755
sS'australias'
p1360
I379
sS'positive'
p1361
I3220
sS'angry'
p1362
I248
sS'resigns'
p1363
I3555
sS'predictions'
p1364
I3246
sS'angela'
p1365
I244
sS'abroad'
p1366
I90
sS'insider'
p1367
I2190
sS'live'
p1368
I2514
sS'moyers'
p1369
I2800
sS'memory'
p1370
I2677
sS'tape'
p1371
I4215
sS'australian'
p1372
I378
sS'unconfirmed'
p1373
I4472
sS'today'
p1374
I4327
sS'introducing'
p1375
I2222
sS'sharing'
p1376
I3843
sS'riot'
p1377
I3621
sS'sessions'
p1378
I3816
sS'club'
p1379
I864
sS'apparent'
p1380
I280
sS'touts'
p1381
I4359
sS'chalkings'
p1382
I765
sS'fuel'
p1383
I1739
sS'dismal'
p1384
I1284
sS'investigation'
p1385
I2226
sS'prophecy'
p1386
I3306
sS'z'
I4810
sS'surrounded'
p1387
I4159
sS'fly'
p1388
I1681
sS'demolish'
p1389
I1197
sS'balistique'
p1390
I422
sS'biden'
p1391
I515
sS'julius'
p1392
I2325
sS'car'
p1393
I711
sS'cap'
p1394
I705
sS'abortion'
p1395
I87
sS'believes'
p1396
I491
sS'regions'
p1397
I3477
sS'drags'
p1398
I1351
sS'can'
p1399
I691
sS'cam'
p1400
I683
sS'fla'
p1401
I1662
sS'making'
p1402
I2591
sS'arrive'
p1403
I325
sS'laughter'
p1404
I2422
sS'unfairly'
p1405
I4485
sS'most'
p1406
I2783
sS'claim'
p1407
I834
sS'whiteboard'
p1408
I4704
sS'violating'
p1409
I4583
sS'trump'
p1410
I4406
sS'lobbying'
p1411
I2527
sS'construir'
p1412
I972
sS'spanking'
p1413
I3986
sS'fuck'
p1414
I1737
sS'agent'
p1415
I173
sS'supremacy'
p1416
I4151
sS'heard'
p1417
I1971
sS'stroke'
p1418
I4100
sS'thrilled'
p1419
I4299
sS'incredible'
p1420
I2156
sS'council'
p1421
I1009
sS'allowed'
p1422
I211
sS'counting'
p1423
I1019
sS'stole'
p1424
I4078
sS'impartiality'
p1425
I2128
sS'listens'
p1426
I2510
sS'productive'
p1427
I3285
sS'bankrupt'
p1428
I436
sS'fuming'
p1429
I1744
sS'tilt'
p1430
I4316
sS'write'
p1431
I4778
sS'marblenecltr'
p1432
I2611
sS'flourishes'
p1433
I1679
sS'magafeed'
p1434
I2579
sS'1'
I3
sS'slams'
p1435
I3922
sS'presstitute'
p1436
I3261
sS'sword'
p1437
I4185
sS'elephant'
p1438
I1428
sS'ensure'
p1439
I1467
sS'speaks'
p1440
I3993
sS'sworn'
p1441
I4186
sS'divides'
p1442
I1308
sS'economy'
p1443
I1400
sS'opeds'
p1444
I2985
sS'map'
p1445
I2608
sS'hearted'
p1446
I1975
sS'crashes'
p1447
I1040
sS'information'
p1448
I2180
sS'critics'
p1449
I1060
sS'snl'
p1450
I3949
sS'fed'
p1451
I1614
sS'averted'
p1452
I390
sS'vicu'
p1453
I4574
sS'anzus'
p1454
I272
sS'islamic'
p1455
I2246
sS'osborne'
p1456
I3009
sS'snr'
p1457
I3953
sS'mad'
p1458
I2575
sS'islands'
p1459
I2249
sS'date'
p1460
I1115
sS'waste'
p1461
I4647
sS'suck'
p1462
I4122
sS'nomination'
p1463
I2911
sS'grow'
p1464
I1878
sS'man'
p1465
I2594
sS'classroom'
p1466
I844
sS'podesta'
p1467
I3184
sS'vehicle'
p1468
I4553
sS'remember'
p1469
I3508
sS'johnson'
p1470
I2301
sS'mayweather'
p1471
I2643
sS'6th'
p1472
I58
sS'chef'
p1473
I795
sS'futures'
p1474
I1756
sS'su'
p1475
I4112
sS'st'
p1476
I4026
sS'q'
I3362
sS'switch'
p1477
I4182
sS'ones'
p1478
I2978
sS'jail'
p1479
I2266
sS'african'
p1480
I164
sS'basket'
p1481
I451
sS'pulled'
p1482
I3339
sS'travel'
p1483
I4380
sS'haus'
p1484
I1952
sS'outlet'
p1485
I3019
sS'howard'
p1486
I2071
sS'rye'
p1487
I3684
sS'joins'
p1488
I2304
sS'canberra'
p1489
I694
sS'duke'
p1490
I1375
sS'serve'
p1491
I3813
sS'deactivated'
p1492
I1128
sS'flips'
p1493
I1675
sS'years'
p1494
I4795
sS'course'
p1495
I1023
sS'kellyanne'
p1496
I2350
sS'accolades'
p1497
I101
sS'statistical'
p1498
I4055
sS'cuts'
p1499
I1084
sS'argued'
p1500
I309
sS'kanye'
p1501
I2338
sS'warmongers'
p1502
I4636
sS'consolidating'
p1503
I965
sS'stir'
p1504
I4075
sS'birds'
p1505
I532
sS'group'
p1506
I1875
sS'monitor'
p1507
I2764
sS'jim'
p1508
I2291
sS'weaker'
p1509
I4664
sS'hot'
p1510
I2063
sS'trumpocalypse'
p1511
I4417
sS'aviv'
p1512
I391
sS'neocon'
p1513
I2873
sS'apec'
p1514
I275
sS'tax'
p1515
I4225
sS'pays'
p1516
I3096
sS'ipswich'
p1517
I2235
sS'mail'
p1518
I2583
sS'msnbc'
p1519
I2803
sS'decades'
p1520
I1145
sS'into'
p1521
I2219
sS'limbo'
p1522
I2498
sS'coincidental'
p1523
I876
sS'non'
p1524
I2913
sS'finance'
p1525
I1640
sS'barron'
p1526
I447
sS'civilian'
p1527
I830
sS'condescendingly'
p1528
I933
sS'rattled'
p1529
I3414
sS'hugs'
p1530
I2076
sS'undisclosed'
p1531
I4480
sS'nation'
p1532
I2846
sS'tucker'
p1533
I4429
sS'interview'
p1534
I2214
sS'medvedev'
p1535
I2662
sS'hamilton'
p1536
I1916
sS'appoints'
p1537
I293
sS'cuchitril'
p1538
I1073
sS'not'
p1539
I2924
sS'mattis'
p1540
I2640
sS'now'
p1541
I2930
sS'discuss'
p1542
I1277
sS'unpredictability'
p1543
I4507
sS'matched'
p1544
I2631
sS'wont'
p1545
I4747
sS'term'
p1546
I4246
sS'attorneys'
p1547
I374
sS'keenly'
p1548
I2345
sS'wray'
p1549
I4772
sS'reince'
p1550
I3487
sS'corners'
p1551
I999
sS'times'
p1552
I4319
sS'drop'
p1553
I1368
sS'einigung'
p1554
I1413
sS'murals'
p1555
I2812
sS'possibilities'
p1556
I3221
sS'vandalised'
p1557
I4544
sS'gore'
p1558
I1833
sS'suspends'
p1559
I4166
sS'entirely'
p1560
I1469
sS'regulation'
p1561
I3482
sS'bigly'
p1562
I518
sS'pierson'
p1563
I3145
sS'el'
p1564
I1414
sS'bridging'
p1565
I617
sS'en'
p1566
I1446
sS'fired'
p1567
I1651
sS'mexico'
p1568
I2694
sS'challenged'
p1569
I767
sS'ed'
p1570
I1401
sS'crushing'
p1571
I1069
sS'unfolds'
p1572
I4487
sS'challenges'
p1573
I768
sS'electorate'
p1574
I1423
sS'fires'
p1575
I1652
sS'replay'
p1576
I3533
sS'farewell'
p1577
I1596
sS'ex'
p1578
I1518
sS'begun'
p1579
I482
sS'sexually'
p1580
I3828
sS'eu'
p1581
I1500
sS'et'
p1582
I1498
sS'deplorables'
p1583
I1211
sS'affluent'
p1584
I159
sS'disasters'
p1585
I1271
sS'es'
p1586
I1489
sS'er'
p1587
I1479
sS'canada'
p1588
I692
sS'jackson'
p1589
I2265
sS'rioters'
p1590
I3622
sS'space'
p1591
I3983
sS'profit'
p1592
I3290
sS'newsnight'
p1593
I2890
sS'irony'
p1594
I2242
sS'immigrant'
p1595
I2123
sS'factory'
p1596
I1571
sS'cancels'
p1597
I699
sS'increase'
p1598
I2153
sS'condemns'
p1599
I932
sS'tim'
p1600
I4317
sS'snowflake'
p1601
I3951
sS'internet'
p1602
I2211
sS'predecessors'
p1603
I3243
sS'roger'
p1604
I3647
sS'dominate'
p1605
I1328
sS'righted'
p1606
I3616
sS'correct'
p1607
I1001
sS'assurance'
p1608
I356
sS'shows'
p1609
I3879
sS'convocar'
p1610
I988
sS'trumpriot'
p1611
I4420
sS'monster'
p1612
I2765
sS'booby'
p1613
I576
sS'state'
p1614
I4048
sS'existentialism'
p1615
I1528
sS'million'
p1616
I2709
sS'albuquerque'
p1617
I194
sS'brooks'
p1618
I632
sS'loyalty'
p1619
I2562
sS'screaming'
p1620
I3763
sS'recordings'
p1621
I3453
sS'california'
p1622
I677
sS'plea'
p1623
I3172
sS'lahren'
p1624
I2403
sS'quits'
p1625
I3373
sS'marine'
p1626
I2617
sS'gofundme'
p1627
I1821
sS'card'
p1628
I712
sS'care'
p1629
I714
sS'advance'
p1630
I143
sS'disguised'
p1631
I1281
sS'ministry'
p1632
I2719
sS'flare'
p1633
I1666
sS'collapsing'
p1634
I880
sS'transition'
p1635
I4375
sS'punk'
p1636
I3346
sS'tries'
p1637
I4392
sS'british'
p1638
I625
sS'replacement'
p1639
I3530
sS'thing'
p1640
I4283
sS'place'
p1641
I3158
sS'massive'
p1642
I2629
sS'swing'
p1643
I4179
sS'tanking'
p1644
I4213
sS'cartooning'
p1645
I723
sS'think'
p1646
I4285
sS'first'
p1647
I1655
sS'blind'
p1648
I548
sS'xi'
p1649
I4789
sS'saving'
p1650
I3724
sS'ono'
p1651
I2982
sS'ignored'
p1652
I2107
sS'rachel'
p1653
I3379
sS'flipping'
p1654
I1674
sS'parkinson'
p1655
I3067
sS'one'
p1656
I2977
sS'injuring'
p1657
I2184
sS'multibillion'
p1658
I2809
sS'americans'
p1659
I231
sS'suing'
p1660
I4134
sS'vote'
p1661
I4606
sS'impossible'
p1662
I2141
sS'message'
p1663
I2686
sS'raped'
p1664
I3406
sS'open'
p1665
I2986
sS'george'
p1666
I1781
sS'ripping'
p1667
I3625
sS'millions'
p1668
I2710
sS'city'
p1669
I828
sS'given'
p1670
I1800
sS'ian'
p1671
I2095
sS'officials'
p1672
I2964
sS'hollyweirdos'
p1673
I2035
sS'v'
I4538
sS'murky'
p1674
I2816
sS'caught'
p1675
I738
sS'trillion'
p1676
I4395
sS't'
I4194
sS'anyone'
p1677
I269
sS'indicate'
p1678
I2165
sS'checker'
p1679
I791
sS'1b'
p1680
I20
sS'draft'
p1681
I1350
sS'terrifying'
p1682
I4250
sS'escort'
p1683
I1493
sS'convention'
p1684
I986
sS'legally'
p1685
I2459
sS'scarborough'
p1686
I3739
sS'wore'
p1687
I4750
sS'ndchen'
p1688
I2858
sS'west'
p1689
I4687
sS'friend'
p1690
I1729
sS'gives'
p1691
I1801
sS'slashes'
p1692
I3926
sS'exploring'
p1693
I1543
sS'eyes'
p1694
I1561
sS'showdown'
p1695
I3877
sS'tempers'
p1696
I4241
sS'appointees'
p1697
I292
sS'that'
p1698
I4268
sS'trumped'
p1699
I4408
sS'appreciates'
p1700
I294
sS'surges'
p1701
I4156
sS'montenegro'
p1702
I2766
sS'subpoenas'
p1703
I4116
sS'meddling'
p1704
I2659
sS'cops'
p1705
I992
sS'hillary'
p1706
I2008
sS'huw'
p1707
I2090
sS'mantenimiento'
p1708
I2604
sS'shirley'
p1709
I3854
sS'copy'
p1710
I993
sS'than'
p1711
I4264
sS'population'
p1712
I3209
sS'11'
p1713
I8
sS'10'
p1714
I4
sS'13'
p1715
I10
sS'12'
p1716
I9
sS'15'
p1717
I11
sS'unfortunately'
p1718
I4488
sS'17'
p1719
I13
sS'19'
p1720
I16
sS'automakers'
p1721
I385
sS'optimism'
p1722
I3000
sS'disavowing'
p1723
I1272
sS'implodes'
p1724
I2136
sS'sabotaged'
p1725
I3686
sS'future'
p1726
I1755
sS'spat'
p1727
I3989
sS'disrespects'
p1728
I1296
sS'loyalists'
p1729
I2561
sS'cards'
p1730
I713
sS'frydenberg'
p1731
I1736
sS'counselor'
p1732
I1014
sS'oath'
p1733
I2943
sS'russia'
p1734
I3678
sS'sean'
p1735
I3772
sS'and'
p1736
I241
sS'voters'
p1737
I4609
sS'ana'
p1738
I237
sS'investors'
p1739
I2230
sS'supremacist'
p1740
I4149
sS'craig'
p1741
I1036
sS'pro'
p1742
I3279
sS'dass'
p1743
I1113
sS'turned'
p1744
I4441
sS'argument'
p1745
I310
sS'reno'
p1746
I3516
sS'sad'
p1747
I3692
sS'say'
p1748
I3726
sS'decapitated'
p1749
I1146
sS'buried'
p1750
I651
sS'scuttles'
p1751
I3768
sS'anger'
p1752
I245
sS'allen'
p1753
I207
sS'20k'
p1754
I28
sS'recover'
p1755
I3456
sS'confesses'
p1756
I935
sS'any'
p1757
I268
sS'corbett'
p1758
I995
sS'zoe'
p1759
I4816
sS'coal'
p1760
I870
sS'translate'
p1761
I4376
sS'sending'
p1762
I3804
sS'aside'
p1763
I335
sS'shocked'
p1764
I3859
sS'shark'
p1765
I3844
sS'clintons'
p1766
I851
sS'potential'
p1767
I3229
sS'take'
p1768
I4202
sS'online'
p1769
I2980
sS'pisses'
p1770
I3155
sS'destroy'
p1771
I1234
sS'vandals'
p1772
I4546
sS'switching'
p1773
I4184
sS'channel'
p1774
I775
sS'ultimate'
p1775
I4462
sS'urge'
p1776
I4525
sS'begin'
p1777
I478
sS'armando'
p1778
I314
sS'multiple'
p1779
I2810
sS'norman'
p1780
I2919
sS'infiltrators'
p1781
I2175
sS'feu'
p1782
I1625
sS'price'
p1783
I3266
sS'keeps'
p1784
I2348
sS'indicted'
p1785
I2166
sS'paid'
p1786
I3046
sS'falls'
p1787
I1586
sS'talk'
p1788
I4209
sS'rematch'
p1789
I3507
sS'assault'
p1790
I348
sS'misterdawg'
p1791
I2742
sS'rants'
p1792
I3403
sS'mate'
p1793
I2632
sS'stormed'
p1794
I4085
sS'complaints'
p1795
I922
sS'america'
p1796
I229
sS'michelle'
p1797
I2698
sS'forever'
p1798
I1702
sS'registering'
p1799
I3478
sS'room'
p1800
I3657
sS'average'
p1801
I389
sS'shooter'
p1802
I3865
sS'implications'
p1803
I2134
sS'sussman'
p1804
I4168
sS'defeating'
p1805
I1168
sS'playing'
p1806
I3169
sS'federal'
p1807
I1615
sS'alertthedaycarestaff'
p1808
I198
sS'prepare'
p1809
I3251
sS'wind'
p1810
I4723
sS'uncertain'
p1811
I4468
sS'jumped'
p1812
I2327
sS'senior'
p1813
I3806
sS'salt'
p1814
I3701
sS'review'
p1815
I3588
sS'repeatedly'
p1816
I3526
sS'rating'
p1817
I3412
sS'walking'
p1818
I4626
sS'misconduct'
p1819
I2728
sS'solar'
p1820
I3961
sS'restriction'
p1821
I3572
sS'german'
p1822
I1782
sS'infuriate'
p1823
I2182
sS'allegations'
p1824
I205
sS'voter'
p1825
I4608
sS'russian'
p1826
I3679
sS'propagandist'
p1827
I3304
sS'jordanian'
p1828
I2311
sS'cambodian'
p1829
I684
sS'saying'
p1830
I3728
sS'protections'
p1831
I3313
sS'corner'
p1832
I998
sS'forecast'
p1833
I1700
sS'ground'
p1834
I1873
sS'deportation'
p1835
I1214
sS'righteous'
p1836
I3617
sS'waves'
p1837
I4657
sS'witch'
p1838
I4733
sS'adolf'
p1839
I142
sS'favor'
p1840
I1605
sS'storms'
p1841
I4086
sS'3'
I36
sS'crime'
p1842
I1049
sS'only'
p1843
I2981
sS'going'
p1844
I1822
sS'black'
p1845
I538
sS'pollsters'
p1846
I3202
sS'enthusiasm'
p1847
I1468
sS'watching'
p1848
I4651
sS'congressional'
p1849
I954
sS'dispute'
p1850
I1294
sS'ranking'
p1851
I3401
sS'poroshenko'
p1852
I3214
sS'touches'
p1853
I4352
sS'ssy'
p1854
I4025
sS'closed'
p1855
I856
sS'dishonourable'
p1856
I1283
sS'get'
p1857
I1784
sS'hostage'
p1858
I2060
sS'assistant'
p1859
I353
sS'merkel'
p1860
I2684
sS'horrible'
p1861
I2054
sS'designated'
p1862
I1229
sS'patriot'
p1863
I3086
sS'mission'
p1864
I2738
sS'quiff'
p1865
I3371
sS'nearly'
p1866
I2861
sS'honours'
p1867
I2044
sS'suggest'
p1868
I4130
sS'designates'
p1869
I1230
sS'bastille'
p1870
I453
sS'protectionist'
p1871
I3312
sS'celebrate'
p1872
I749
sS'prime'
p1873
I3271
sS'reveal'
p1874
I3583
sS'reading'
p1875
I3424
sS'kazanmak'
p1876
I2343
sS'girl'
p1877
I1796
sS'suspects'
p1878
I4165
sS'busiest'
p1879
I657
sS'logan'
p1880
I2536
sS'morning'
p1881
I2775
sS'naked'
p1882
I2837
sS'jokes'
p1883
I2306
sS'bigoted'
p1884
I519
sS'losers'
p1885
I2550
sS'predicted'
p1886
I3244
sS'ut'
p1887
I4536
sS'worries'
p1888
I4760
sS'miley'
p1889
I2705
sS'neutralise'
p1890
I2882
sS'communicated'
p1891
I911
sS'reels'
p1892
I3464
sS'staff'
p1893
I4029
sS'arrival'
p1894
I324
sS'declared'
p1895
I1156
sS'concert'
p1896
I931
sS'encourages'
p1897
I1448
sS'signs'
p1898
I3897
sS'ends'
p1899
I1457
sS'seat'
p1900
I3775
sS'huckabee'
p1901
I2074
sS'elected'
p1902
I1417
sS'college'
p1903
I883
sS'declares'
p1904
I1157
sS'ignores'
p1905
I2109
sS'ignorer'
p1906
I2108
sS'sport'
p1907
I4014
sS'dives'
p1908
I1307
sS'rages'
p1909
I3387
sS'fails'
p1910
I1577
sS'pennsylvania'
p1911
I3105
sS'mortgage'
p1912
I2780
sS'farmers'
p1913
I1598
sS'crooked'
p1914
I1061
sS'harvey'
p1915
I1938
sS'incite'
p1916
I2150
sS'flop'
p1917
I1677
sS'vaccines'
p1918
I4540
sS'underestimate'
p1919
I4476
sS'behind'
p1920
I484
sS'un'
p1921
I4464
sS'tea'
p1922
I4229
sS'whats'
p1923
I4691
sS'between'
p1924
I508
sS'israels'
p1925
I2256
sS'import'
p1926
I2139
sS'dreamer'
p1927
I1361
sS'checks'
p1928
I792
sS'caucus'
p1929
I737
sS'wouldve'
p1930
I4768
sS'affordable'
p1931
I160
sS'notice'
p1932
I2927
sS'jobs'
p1933
I2297
sS'heureux'
p1934
I1997
sS'negotiations'
p1935
I2867
sS'uns'
p1936
I4510
sS'legitimacy'
p1937
I2460
sS'fearless'
p1938
I1611
sS'screen'
p1939
I3764
sS'smear'
p1940
I3943
sS'vigilantes'
p1941
I4582
sS'replaces'
p1942
I3532
sS'jr'
p1943
I2316
sS'blame'
p1944
I540
sS'smashed'
p1945
I3942
sS'sacked'
p1946
I3689
sS'awards'
p1947
I396
sS'whispered'
p1948
I4700
sS'comeback'
p1949
I891
sS'cities'
p1950
I827
sS'come'
p1951
I890
sS'luhrmann'
p1952
I2565
sS'undermine'
p1953
I4477
sS'zoellick'
p1954
I4817
sS'jfk'
p1955
I2289
sS'reaction'
p1956
I3420
sS'dates'
p1957
I1116
sS'mans'
p1958
I2603
sS'many'
p1959
I2607
sS'imf'
p1960
I2119
sS'resist'
p1961
I3556
sS'according'
p1962
I104
sS'lashes'
p1963
I2411
sS'blasts'
p1964
I545
sS'tour'
p1965
I4356
sS'takeover'
p1966
I4205
sS'comey'
p1967
I894
sS'highlights'
p1968
I2004
sS'senator'
p1969
I3802
sS'holders'
p1970
I2030
sS'kaine'
p1971
I2336
sS'expression'
p1972
I1554
sS'comes'
p1973
I893
sS'deported'
p1974
I1216
sS'pols'
p1975
I3203
sS'afterwards'
p1976
I166
sS'color'
p1977
I886
sS'beyonce'
p1978
I509
sS'mandate'
p1979
I2598
sS'moscow'
p1980
I2781
sS'promises'
p1981
I3297
sS'insist'
p1982
I2192
sS'mccain'
p1983
I2644
sS'60'
p1984
I56
sS'61'
p1985
I57
sS'fiery'
p1986
I1630
sS'anti'
p1987
I261
sS'stretched'
p1988
I4097
sS'learning'
p1989
I2444
sS'article'
p1990
I328
sS'cancel'
p1991
I695
sS'proved'
p1992
I3322
sS'bizarre'
p1993
I537
sS'poll'
p1994
I3199
sS'considers'
p1995
I964
sS'nicole'
p1996
I2898
sS'considering'
p1997
I963
sS'better'
p1998
I507
sS'arts'
p1999
I330
sS'oliver'
p2000
I2972
sS'tuning'
p2001
I4433
sS'cares'
p2002
I718
sS'stretch'
p2003
I4096
sS'steyer'
p2004
I4072
sS'rebuild'
p2005
I3437
sS'ucla'
p2006
I4457
sS'concede'
p2007
I928
sS'mark'
p2008
I2619
sS'whos'
p2009
I4708
sS'dictator'
p2010
I1251
sS'dangers'
p2011
I1105
sS'rancher'
p2012
I3397
sS'billionaires'
p2013
I526
sS'escalates'
p2014
I1491
sS'500'
p2015
I54
sS'wants'
p2016
I4632
sS'truths'
p2017
I4426
sS'spare'
p2018
I3987
sS'bypass'
p2019
I668
sS'restrictions'
p2020
I3573
sS'robbed'
p2021
I3637
sS'influence'
p2022
I2177
sS'tired'
p2023
I4325
sS'andrew'
p2024
I243
sS'sh'
p2025
I3829
sS'echoes'
p2026
I1394
sS'stabs'
p2027
I4027
sS'dramatic'
p2028
I1355
sS'wake'
p2029
I4624
sS'metals'
p2030
I2689
sS'penn'
p2031
I3104
sS'suspected'
p2032
I4164
sS'careful'
p2033
I716
sS'when'
p2034
I4693
sS'former'
p2035
I1708
sS'case'
p2036
I725
sS'leitet'
p2037
I2463
sS'casa'
p2038
I724
sS'developing'
p2039
I1245
sS'schumer'
p2040
I3749
sS'consultant'
p2041
I973
sS'mount'
p2042
I2789
sS'polls'
p2043
I3201
sS'legitimise'
p2044
I2461
sS'cash'
p2045
I726
sS'arnold'
p2046
I319
sS'cast'
p2047
I728
sS'crowley'
p2048
I1064
sS'warning'
p2049
I4639
sS'ongoing'
p2050
I2979
sS'apologises'
p2051
I277
sS'cancelled'
p2052
I698
sS'investigating'
p2053
I2225
sS'landslide'
p2054
I2408
sS'taking'
p2055
I4207
sS'ein'
p2056
I1412
sS'lookout'
p2057
I2544
sS'trades'
p2058
I4367
sS'nyt'
p2059
I2940
sS'then'
p2060
I4274
sS'shreds'
p2061
I3881
sS'engaged'
p2062
I1462
sS'them'
p2063
I4271
sS'commander'
p2064
I897
sS'canceled'
p2065
I696
sS'taunts'
p2066
I4224
sS'billiton'
p2067
I528
sS'embrace'
p2068
I1437
sS'iowa'
p2069
I2234
sS'flipped'
p2070
I1673
sS'decisively'
p2071
I1153
sS'worry'
p2072
I4761
sS'spaces'
p2073
I3984
sS'intense'
p2074
I2203
sS'missiles'
p2075
I2736
sS'thrones'
p2076
I4301
sS'doctor'
p2077
I1314
sS'media'
p2078
I2660
sS'confidant'
p2079
I936
sS'same'
p2080
I3704
sS'trip'
p2081
I4396
sS'gropes'
p2082
I1872
sS'libertynews'
p2083
I2482
sS'pac'
p2084
I3040
sS'followers'
p2085
I1687
sS'angered'
p2086
I246
sS'manila'
p2087
I2600
sS'leftists'
p2088
I2454
sS'events'
p2089
I1511
sS'moronic'
p2090
I2777
sS'breakdown'
p2091
I604
sS'putin'
p2092
I3357
sS'revised'
p2093
I3589
sS'applaud'
p2094
I287
sS'boosted'
p2095
I582
sS'liberals'
p2096
I2478
sS'drives'
p2097
I1366
sS'wird'
p2098
I4728
sS'cheers'
p2099
I794
sS'running'
p2100
I3673
sS'fruit'
p2101
I1734
sS'two'
p2102
I4454
sS'unqualified'
p2103
I4508
sS'totally'
p2104
I4350
sS'cartoon'
p2105
I722
sS'mentally'
p2106
I2680
sS'gingrich'
p2107
I1795
sS'drain'
p2108
I1352
sS'in'
p2109
I2146
sS'sayers'
p2110
I3727
sS'charges'
p2111
I783
sS'veritas'
p2112
I4556
sS'constitutional'
p2113
I970
sS'wolpe'
p2114
I4742
sS'wedge'
p2115
I4669
sS'animatronic'
p2116
I249
sS'without'
p2117
I4740
sS'congressmen'
p2118
I956
sS'na'
p2119
I2832
sS'very'
p2120
I4561
sS'model'
p2121
I2754
sS'reward'
p2122
I3597
sS'clipse'
p2123
I852
sS'bodies'
p2124
I567
sS'charged'
p2125
I782
sS'gdp'
p2126
I1775
sS'ck'
p2127
I831
sS'noam'
p2128
I2907
sS'violence'
p2129
I4584
sS'being'
p2130
I489
sS'captures'
p2131
I709
sS'shock'
p2132
I3858
sS'actions'
p2133
I117
sS'shouts'
p2134
I3873
sS'sweeping'
p2135
I4175
sS'toronto'
p2136
I4346
sS'kurdish'
p2137
I2392
sS'kill'
p2138
I2368
sS'tools'
p2139
I4340
sS'positions'
p2140
I3219
sS'touch'
p2141
I4351
sS'baldwin'
p2142
I419
sS'kneeling'
p2143
I2377
sS'smith'
p2144
I3945
sS'weekly'
p2145
I4672
sS'blow'
p2146
I557
sS'brexiteers'
p2147
I612
sS'death'
p2148
I1138
sS'bowie'
p2149
I593
sS'thinking'
p2150
I4286
sS'tourism'
p2151
I4357
sS'except'
p2152
I1521
sS'wildly'
p2153
I4718
sS'blog'
p2154
I553
sS'surprise'
p2155
I4157
sS'4'
I46
sS'versa'
p2156
I4558
sS'emissions'
p2157
I1441
sS'role'
p2158
I3649
sS'poised'
p2159
I3191
sS'rieux'
p2160
I3612
sS'momentum'
p2161
I2762
sS'real'
p2162
I3427
sS'bernardi'
p2163
I500
sS'zion'
p2164
I4815
sS'around'
p2165
I320
sS'rises'
p2166
I3628
sS'desperately'
p2167
I1232
sS'rules'
p2168
I3669
sS'stung'
p2169
I4106
sS'mow'
p2170
I2799
sS'virginia'
p2171
I4589
sS'dark'
p2172
I1109
sS'hobarts'
p2173
I2028
sS'inflation'
p2174
I2176
sS'moo'
p2175
I2768
sS'pop'
p2176
I3206
sS'similarly'
p2177
I3901
sS'schedules'
p2178
I3745
sS'libs'
p2179
I2483
sS'mob'
p2180
I2746
sS'accepted'
p2181
I97
sS'disappointed'
p2182
I1269
sS'scientist'
p2183
I3752
sS'dare'
p2184
I1108
sS'adams'
p2185
I128
sS'endorses'
p2186
I1456
sS'miracle'
p2187
I2725
sS'roll'
p2188
I3650
sS'facing'
p2189
I1568
sS'postpresidency'
p2190
I3227
sS'laughing'
p2191
I2421
sS'molotov'
p2192
I2759
sS'pundits'
p2193
I3344
sS'tower'
p2194
I4362
sS'passionate'
p2195
I3081
sS'endorsed'
p2196
I1454
sS'reaches'
p2197
I3418
sS'debut'
p2198
I1143
sS'cisco'
p2199
I825
sS'jews'
p2200
I2288
sS'doll'
p2201
I1323
sS'reveals'
p2202
I3585
sS'dilbert'
p2203
I1258
sS'babbling'
p2204
I403
sS'pacific'
p2205
I3042
sS'l'
I2394
sS'exposes'
p2206
I1549
sS'oscars'
p2207
I3010
sS'wiretapping'
p2208
I4731
sS'erase'
p2209
I1481
sS'laughed'
p2210
I2420
sS'respect'
p2211
I3559
sS'divine'
p2212
I1309
sS'thinks'
p2213
I4287
sS'sack'
p2214
I3688
sS'pinkerton'
p2215
I3151
sS'outs'
p2216
I3023
sS'caribbean'
p2217
I720
sS'reportedly'
p2218
I3537
sS'crites'
p2219
I1054
sS'confirm'
p2220
I939
sS'witchcraft'
p2221
I4734
sS'gewonnen'
p2222
I1788
sS'ryan'
p2223
I3683
sS'legal'
p2224
I2457
sS'conservative'
p2225
I960
sS'recites'
p2226
I3444
sS'critical'
p2227
I1055
sS'exit'
p2228
I1529
sS'deficit'
p2229
I1176
sS'aussie'
p2230
I376
sS'quitting'
p2231
I3374
sS'knife'
p2232
I2380
sS'tel'
p2233
I4236
sS'resurgence'
p2234
I3577
sS'destroys'
p2235
I1236
sS'londons'
p2236
I2539
sS'football'
p2237
I1693
sS'assembly'
p2238
I351
sS'racism'
p2239
I3380
sS'business'
p2240
I658
sS'poem'
p2241
I3185
sS'populists'
p2242
I3212
sS'nails'
p2243
I2836
sS'se'
p2244
I3769
sS'broker'
p2245
I631
sS'broken'
p2246
I629
sS'meets'
p2247
I2666
sS'qna'
p2248
I3364
sS'barrie'
p2249
I445
sS'assemble'
p2250
I350
sS'thailand'
p2251
I4263
sS'exciting'
p2252
I1523
sS'handsomest'
p2253
I1923
sS'throw'
p2254
I4303
sS'on'
p2255
I2974
sS'stone'
p2256
I4079
sS'central'
p2257
I755
sS'nafta'
p2258
I2834
sS'island'
p2259
I2248
sS'industry'
p2260
I2172
sS'capable'
p2261
I706
sS'discussed'
p2262
I1278
sS'militants'
p2263
I2706
sS'side'
p2264
I3889
sS'farhadi'
p2265
I1597
sS'historischer'
p2266
I2018
sS'wolf'
p2267
I4741
sS'stand'
p2268
I4039
sS'neighbor'
p2269
I2869
sS'act'
p2270
I114
sS'mixed'
p2271
I2745
sS'discusses'
p2272
I1279
sS'deranged'
p2273
I1224
sS'or'
p2274
I3002
sS'road'
p2275
I3633
sS'op'
p2276
I2984
sS'outlook'
p2277
I3021
sS'protests'
p2278
I3319
sS'fundraising'
p2279
I1750
sS'burning'
p2280
I655
sS'weighs'
p2281
I4676
sS'reporters'
p2282
I3539
sS'communication'
p2283
I912
sS'gard'
p2284
I1768
sS'skilled'
p2285
I3913
sS'rebecca'
p2286
I3434
sS'zulema'
p2287
I4821
sS'vacation'
p2288
I4539
sS'vigil'
p2289
I4580
sS'accounts'
p2290
I106
sS'responds'
p2291
I3564
sS'homeless'
p2292
I2040
sS'parties'
p2293
I3074
sS'elementary'
p2294
I1427
sS'pivot'
p2295
I3157
sS'jerusalem'
p2296
I2282
sS'your'
p2297
I4803
sS'intervention'
p2298
I2213
sS'replacements'
p2299
I3531
sS'legacy'
p2300
I2456
sS'her'
p2301
I1992
sS'hes'
p2302
I1996
sS'weekend'
p2303
I4671
sS'there'
p2304
I4278
sS'alleged'
p2305
I206
sS'lol'
p2306
I2537
sS'gravis'
p2307
I1855
sS'los'
p2308
I2547
sS'racist'
p2309
I3381
sS'low'
p2310
I2559
sS'lot'
p2311
I2555
sS'decisive'
p2312
I1152
sS'tiffany'
p2313
I4311
sS'assumes'
p2314
I355
sS'morrison'
p2315
I2779
sS'hookers'
p2316
I2046
sS'jones'
p2317
I2308
sS'750'
p2318
I62
sS'complete'
p2319
I923
sS'stereotyped'
p2320
I4069
sS'enough'
p2321
I1464
sS'spics'
p2322
I4003
sS'mars'
p2323
I2624
sS'pleased'
p2324
I3175
sS'delayed'
p2325
I1178
sS'strikes'
p2326
I4099
sS'cabinet'
p2327
I670
sS'locks'
p2328
I2533
sS'statesman'
p2329
I4052
sS'announcement'
p2330
I252
sS'farage'
p2331
I1595
sS'pitched'
p2332
I3156
sS'assets'
p2333
I352
sS'with'
p2334
I4735
sS'outcome'
p2335
I3018
sS'buying'
p2336
I666
sS'longer'
p2337
I2541
sS'pull'
p2338
I3338
sS'hire'
p2339
I2013
sS'fraud'
p2340
I1722
sS'rage'
p2341
I3386
sS'vice'
p2342
I4566
sS'unveils'
p2343
I4514
sS'nearest'
p2344
I2860
sS'dirty'
p2345
I1266
sS'abuser'
p2346
I93
sS'manuel'
p2347
I2605
sS'agree'
p2348
I177
sS'expect'
p2349
I1532
sS'encourges'
p2350
I1449
sS'cnbc'
p2351
I866
sS'ab'
p2352
I76
sS'leaked'
p2353
I2438
sS'ad'
p2354
I126
sS'johnny'
p2355
I2300
sS'youtube'
p2356
I4806
sS'stealing'
p2357
I4060
sS'am'
p2358
I224
sS'al'
p2359
I190
sS'deep'
p2360
I1163
sS'an'
p2361
I236
sS'cbs'
p2362
I746
sS'britain'
p2363
I624
sS'intro'
p2364
I2221
sS'at'
p2365
I359
sS'file'
p2366
I1636
sS'shut'
p2367
I3884
sS'lifetime'
p2368
I2491
sS'mover'
p2369
I2795
sS'moves'
p2370
I2796
sS'syrian'
p2371
I4191
sS'bishop'
p2372
I534
sS'again'
p2373
I167
sS'want'
p2374
I4630
sS'idiot'
p2375
I2102
sS'personnel'
p2376
I3118
sS'lashing'
p2377
I2412
sS'cyberbullying'
p2378
I1087
sS'insurance'
p2379
I2200
sS'rubber'
p2380
I3665
sS'bragging'
p2381
I599
sS'unimagineable'
p2382
I4492
sS'lobbyists'
p2383
I2528
sS'astronaut'
p2384
I357
sS'gambling'
p2385
I1763
sS'fools'
p2386
I1692
sS'forcing'
p2387
I1698
sS'immunity'
p2388
I2126
sS'gaining'
p2389
I1759
sS'requested'
p2390
I3547
sS'poop'
p2391
I3204
sS'releasing'
p2392
I3498
sS'may'
p2393
I2641
sS'congress'
p2394
I953
sS'impersonation'
p2395
I2131
sS'students'
p2396
I4105
sS'guam'
p2397
I1881
sS'narrative'
p2398
I2844
sS'interpersonal'
p2399
I2212
sS'torched'
p2400
I4344
sS'includes'
p2401
I2151
sS'vp'
p2402
I4614
sS'important'
p2403
I2140
sS'wounds'
p2404
I4769
sS'coverage'
p2405
I1027
sS'fresh'
p2406
I1728
sS'chris'
p2407
I814
sS'zuesse'
p2408
I4820
sS'stocks'
p2409
I4077
sS'missed'
p2410
I2734
sS'building'
p2411
I644
sS'blacks'
p2412
I539
sS'calls'
p2413
I681
sS'gutless'
p2414
I1896
sS'odds'
p2415
I2953
sS'dankof'
p2416
I1107
sS'saved'
p2417
I3723
sS'repay'
p2418
I3523
sS'mass'
p2419
I2628
sS'adam'
p2420
I127
sS'put'
p2421
I3356
sS'signals'
p2422
I3894
sS'overseas'
p2423
I3029
sS'mean'
p2424
I2654
sS'bolton'
p2425
I572
sS'original'
p2426
I3007
sS'banishment'
p2427
I431
sS'all'
p2428
I203
sS'since'
p2429
I3903
sS'liar'
p2430
I2473
sS'forget'
p2431
I1703
sS'chinese'
p2432
I806
sS'ali'
p2433
I200
sS'amtsantritt'
p2434
I235
sS'caused'
p2435
I741
sS'forbidden'
p2436
I1696
sS'lack'
p2437
I2400
sS'dollar'
p2438
I1324
sS'fuego'
p2439
I1738
sS'unrest'
p2440
I4509
sS'code'
p2441
I874
sS'deadline'
p2442
I1130
sS'unmoved'
p2443
I4504
sS'talks'
p2444
I4211
sS'follow'
p2445
I1686
sS'alt'
p2446
I221
sS'mining'
p2447
I2716
sS'als'
p2448
I219
sS'causes'
p2449
I742
sS'shattered'
p2450
I3845
sS'griffin'
p2451
I1868
sS'gorafi'
p2452
I1832
sS'homage'
p2453
I2037
sS'ignorant'
p2454
I2105
sS'lining'
p2455
I2503
sS'switched'
p2456
I4183
sS'cheney'
p2457
I797
sS'opportunities'
p2458
I2993
sS'realities'
p2459
I3428
sS'riots'
p2460
I3623
sS'to'
p2461
I4326
sS'program'
p2462
I3291
sS'shameless'
p2463
I3837
sS'nord'
p2464
I2916
sS'grilled'
p2465
I1869
sS'pledges'
p2466
I3177
sS'weeks'
p2467
I4673
sS'sound'
p2468
I3976
sS'global'
p2469
I1807
sS'ok'
p2470
I2968
sS'manafort'
p2471
I2595
sS'returning'
p2472
I3579
sS'far'
p2473
I1594
sS'grindr'
p2474
I1870
sS'fat'
p2475
I1602
sS'focus'
p2476
I1684
sS'simpsons'
p2477
I3902
sS'wiretap'
p2478
I4730
sS'rogue'
p2479
I3648
sS'prototypes'
p2480
I3320
sS'fall'
p2481
I1582
sS'stacked'
p2482
I4028
sS'trigger'
p2483
I4393
sS'mcgahn'
p2484
I2650
sS'moines'
p2485
I2757
sS'mothers'
p2486
I2787
sS'louis'
p2487
I2556
sS'list'
p2488
I2507
sS'joined'
p2489
I2303
sS'punish'
p2490
I3345
sS'plotting'
p2491
I3179
sS'these'
p2492
I4280
sS'scrapping'
p2493
I3761
sS'adjust'
p2494
I133
sS'saudi'
p2495
I3718
sS'liars'
p2496
I2474
sS'harry'
p2497
I1937
sS'small'
p2498
I3940
sS'conflicted'
p2499
I944
sS'selbst'
p2500
I3794
sS'ass'
p2501
I341
sS'neighborhood'
p2502
I2870
sS'instagram'
p2503
I2196
sS'fence'
p2504
I1623
sS'harder'
p2505
I1936
sS'197'
p2506
I18
sS'streets'
p2507
I4094
sS'grabs'
p2508
I1845
sS'preposterous'
p2509
I3253
sS'past'
p2510
I3082
sS'react'
p2511
I3419
sS'rate'
p2512
I3409
sS'salman'
p2513
I3700
sS'lawyer'
p2514
I2429
sS'wife'
p2515
I4715
sS'nbc'
p2516
I2856
sS'further'
p2517
I1753
sS'nba'
p2518
I2855
sS'promotes'
p2519
I3299
sS'casual'
p2520
I731
sS'ribbon'
p2521
I3601
sS'sue'
p2522
I4124
sS'abc'
p2523
I82
sS'abe'
p2524
I84
sS'richard'
p2525
I3604
sS'deeply'
p2526
I1165
sS'labels'
p2527
I2398
sS'sellout'
p2528
I3797
sS'public'
p2529
I3334
sS'mueller'
p2530
I2805
sS'attitudes'
p2531
I372
sS'scientists'
p2532
I3753
sS'corker'
p2533
I997
sS'90k'
p2534
I71
sS'learned'
p2535
I2443
sS'guns'
p2536
I1894
sS'themselves'
p2537
I4273
sS'movement'
p2538
I2793
sS'turmoil'
p2539
I4435
sS'full'
p2540
I1742
sS'christian'
p2541
I815
sS'policies'
p2542
I3193
sS'ma'
p2543
I2570
sS'compilation'
p2544
I921
sS'responded'
p2545
I3562
sS'whistle'
p2546
I4701
sS'theresa'
p2547
I4279
sS'answers'
p2548
I258
sS'revenge'
p2549
I3586
sS'hours'
p2550
I2067
sS'rigged'
p2551
I3613
sS'suicide'
p2552
I4133
sS'situation'
p2553
I3909
sS'ignore'
p2554
I2106
sS'november'
p2555
I2929
sS'bombshell'
p2556
I573
sS'table'
p2557
I4195
sS'backlash'
p2558
I411
sS'searches'
p2559
I3774
sS'search'
p2560
I3773
sS'bible'
p2561
I513
sS'substance'
p2562
I4117
sS'zone'
p2563
I4819
sS'ahead'
p2564
I181
sS'tweets'
p2565
I4450
sS'reactionaries'
p2566
I3421
sS'inspired'
p2567
I2195
sS'allows'
p2568
I212
sS'creepy'
p2569
I1047
sS'pics'
p2570
I3143
sS'significantly'
p2571
I3895
sS'prior'
p2572
I3276
sS'airport'
p2573
I189
sS'horrified'
p2574
I2055
sS'pick'
p2575
I3141
sS'action'
p2576
I116
sS'katehon'
p2577
I2340
sS'hateful'
p2578
I1943
sS'megyn'
p2579
I2667
sS'family'
p2580
I1590
sS'suddenly'
p2581
I4123
sS'obamacare'
p2582
I2945
sS'africa'
p2583
I163
sS'disgusting'
p2584
I1282
sS'ask'
p2585
I336
sS'jrs'
p2586
I2317
sS'globes'
p2587
I1811
sS'pulls'
p2588
I3341
sS'rican'
p2589
I3602
sS'syrians'
p2590
I4192
sS'armed'
p2591
I315
sS'teach'
p2592
I4230
sS'ringing'
p2593
I3620
sS'environment'
p2594
I1471
sS'attendance'
p2595
I370
sS'eye'
p2596
I1560
sS'takes'
p2597
I4206
sS'iraqi'
p2598
I2239
sS'turnout'
p2599
I4443
sS'finally'
p2600
I1639
sS'indias'
p2601
I2164
sS'almost'
p2602
I215
sS'praised'
p2603
I3237
sS'demeaned'
p2604
I1190
sS'6'
I55
sS'mysterious'
p2605
I2830
sS'y'
I4791
sS'markets'
p2606
I2621
sS'authorization'
p2607
I382
sS'more'
p2608
I2773
sS'flat'
p2609
I1669
sS'israel'
p2610
I2253
sS'door'
p2611
I1341
sS'knows'
p2612
I2384
sS'grabbing'
p2613
I1844
sS'company'
p2614
I916
sS'site'
p2615
I3907
sS'admissions'
p2616
I139
sS'excuse'
p2617
I1524
sS'flag'
p2618
I1663
sS'floyd'
p2619
I1680
sS'wielding'
p2620
I4714
sS'broke'
p2621
I628
sS'20000'
p2622
I23
sS'doom'
p2623
I1339
sS'suffered'
p2624
I4128
sS'glad'
p2625
I1803
sS'respected'
p2626
I3560
sS'arabella'
p2627
I305
sS'edel'
p2628
I1402
sS'debates'
p2629
I1141
sS'vladimir'
p2630
I4598
sS'middle'
p2631
I2701
sS'science'
p2632
I3751
sS'des'
p2633
I1226
sS'coalition'
p2634
I871
sS'tv'
p2635
I4446
sS'guards'
p2636
I1887
sS'remain'
p2637
I3503
sS'nine'
p2638
I2904
sS'learn'
p2639
I2442
sS'abandon'
p2640
I78
sS'dea'
p2641
I1127
sS'grope'
p2642
I1871
sS'male'
p2643
I2593
sS'spicer'
p2644
I4002
sS'evangelicals'
p2645
I1506
sS'history'
p2646
I2019
sS'beautiful'
p2647
I469
sS'compare'
p2648
I917
sS'chlich'
p2649
I807
sS'embarrassing'
p2650
I1435
sS'challenging'
p2651
I769
sS'pushes'
p2652
I3352
sS'brown'
p2653
I635
sS'rodriguez'
p2654
I3646
sS'onslaught'
p2655
I2983
sS'snuck'
p2656
I3954
sS'share'
p2657
I3840
sS'accept'
p2658
I96
sS'boycott'
p2659
I595
sS'shinzo'
p2660
I3852
sS'contradicts'
p2661
I980
sS'tuesday'
p2662
I4430
sS'protects'
p2663
I3314
sS'numbers'
p2664
I2936
sS'libertarian'
p2665
I2479
sS'mehr'
p2666
I2668
sS'murderous'
p2667
I2814
sS'huge'
p2668
I2075
sS'needs'
p2669
I2864
sS'court'
p2670
I1024
sS'goal'
p2671
I1817
sS'awkward'
p2672
I399
sS'rather'
p2673
I3411
sS'clarke'
p2674
I839
sS'breaking'
p2675
I605
sS'reprimanded'
p2676
I3543
sS'dismissed'
p2677
I1286
sS'fame'
p2678
I1589
sS'maps'
p2679
I2609
sS'glowing'
p2680
I1814
sS'gisele'
p2681
I1797
sS'dismisses'
p2682
I1287
sS'explains'
p2683
I1540
sS'hoaxer'
p2684
I2025
sS'shirts'
p2685
I3856
sS'unwilling'
p2686
I4515
sS'plant'
p2687
I3165
sS'sandwich'
p2688
I3710
sS'indian'
p2689
I2162
sS'rude'
p2690
I3666
sS'uprising'
p2691
I4521
sS'advice'
p2692
I145
sS'scouts'
p2693
I3759
sS'greenwald'
p2694
I1862
sS'tracking'
p2695
I4364
sS'breitbart'
p2696
I608
sS'plane'
p2697
I3162
sS'blood'
p2698
I554
sS'countering'
p2699
I1018
sS'coming'
p2700
I896
sS'ethics'
p2701
I1499
sS'wave'
p2702
I4656
sS'fl'
p2703
I1661
sS'response'
p2704
I3566
sS'snowflakes'
p2705
I3952
sS'a'
I75
sS'trucks'
p2706
I4403
sS'short'
p2707
I3867
sS'trumpess'
p2708
I4409
sS'presstitutes'
p2709
I3262
sS'tweeting'
p2710
I4449
sS'shady'
p2711
I3832
sS'author'
p2712
I381
sS'departure'
p2713
I1208
sS'throws'
p2714
I4305
sS'bashing'
p2715
I450
sS'seizes'
p2716
I3793
sS'wrench'
p2717
I4776
sS'pay'
p2718
I3092
sS'putting'
p2719
I3359
sS'tactic'
p2720
I4199
sS'lasting'
p2721
I2414
sS'dream'
p2722
I1360
sS'balloon'
p2723
I426
sS'imploding'
p2724
I2137
sS'played'
p2725
I3167
sS'help'
p2726
I1985
sS'swamped'
p2727
I4170
sS'charities'
p2728
I784
sS'setback'
p2729
I3818
sS'trade'
p2730
I4365
sS'disabled'
p2731
I1267
sS'held'
p2732
I1983
sS'isnt'
p2733
I2250
sS'already'
p2734
I217
sS'scott'
p2735
I3756
sS'committee'
p2736
I907
sS'committed'
p2737
I906
sS'hell'
p2738
I1984
sS'mcdonalds'
p2739
I2647
sS'its'
p2740
I2260
sS'roots'
p2741
I3659
sS'developer'
p2742
I1244
sS'24'
p2743
I30
sS'member'
p2744
I2673
sS'alle'
p2745
I204
sS'20'
p2746
I22
sS'nordstrom'
p2747
I2917
sS'22'
p2748
I29
sS'shifts'
p2749
I3851
sS'pray'
p2750
I3239
sS'assaulting'
p2751
I349
sS'28'
p2752
I33
sS'29'
p2753
I34
sS'actually'
p2754
I125
sS'late'
p2755
I2415
sS'individuals'
p2756
I2167
sS'charlottesville'
p2757
I787
sS'resentments'
p2758
I3549
sS'stephen'
p2759
I4067
sS'inquiry'
p2760
I2186
sS'might'
p2761
I2702
sS'alter'
p2762
I222
sS'ally'
p2763
I213
sS'mulvaney'
p2764
I2811
sS'colleague'
p2765
I881
sS'hurting'
p2766
I2087
sS'good'
p2767
I1829
sS'return'
p2768
I3578
sS'abandons'
p2769
I80
sS'seeking'
p2770
I3787
sS'ceo'
p2771
I758
sS'musket'
p2772
I2822
sS'predator'
p2773
I3242
sS'primary'
p2774
I3270
sS'walls'
p2775
I4628
sS'starbucks'
p2776
I4044
sS'milestone'
p2777
I2704
sS'communities'
p2778
I914
sS'yr'
p2779
I4807
sS'bollywood'
p2780
I571
sS'bryan'
p2781
I641
sS'rant'
p2782
I3402
sS'hails'
p2783
I1908
sS'always'
p2784
I223
sS'statement'
p2785
I4049
sS'bless'
p2786
I547
sS'token'
p2787
I4329
sS'gender'
p2788
I1776
sS'well'
p2789
I4683
sS'found'
p2790
I1710
sS'shocking'
p2791
I3861
sS'friendship'
p2792
I1731
sS'counselled'
p2793
I1013
sS'investigators'
p2794
I2227
sS'heavy'
p2795
I1980
sS'reactions'
p2796
I3422
sS'everyone'
p2797
I1514
sS'neil'
p2798
I2871
sS'mental'
p2799
I2679
sS'house'
p2800
I2068
sS'energy'
p2801
I1459
sS'hard'
p2802
I1934
sS'haley'
p2803
I1911
sS'used'
p2804
I4533
sS'gun'
p2805
I1891
sS'katrina'
p2806
I2342
sS'connect'
p2807
I957
sS'tough'
p2808
I4354
sS'gfc'
p2809
I1789
sS'portland'
p2810
I3216
sS'beyond'
p2811
I510
sS'butthurt'
p2812
I663
sS'event'
p2813
I1510
sS'spies'
p2814
I4004
sS'really'
p2815
I3430
sS'rumours'
p2816
I3671
sS'deals'
p2817
I1134
sS'dominates'
p2818
I1330
sS'funding'
p2819
I1748
sS'emotionally'
p2820
I1443
sS'candlelight'
p2821
I702
sS'shoaf'
p2822
I3857
sS'robert'
p2823
I3640
sS'myst'
p2824
I2829
sS'induces'
p2825
I2170
sS'projected'
p2826
I3293
sS'douglas'
p2827
I1345
sS'wwiii'
p2828
I4788
sS'acting'
p2829
I115
sS'trudeau'
p2830
I4404
sS'dominated'
p2831
I1329
sS'7'
I59
sS'urgent'
p2832
I4527
sS'occurs'
p2833
I2951
sS'salute'
p2834
I3702
sS'benjamin'
p2835
I497
sS'endlich'
p2836
I1452
sS'reporting'
p2837
I3540
sS'disobedience'
p2838
I1291
sS'bully'
p2839
I647
sS'1920s'
p2840
I17
sS'asx'
p2841
I358
sS'motherfucker'
p2842
I2786
sS'bulls'
p2843
I646
sS'quick'
p2844
I3369
sS'reason'
p2845
I3431
sS'dire'
p2846
I1264
sS'impeached'
p2847
I2129
sS'backed'
p2848
I407
sS'matthews'
p2849
I2639
sS'reprising'
p2850
I3544
sS'phd'
p2851
I3128
sS'beginning'
p2852
I479
sS'speculation'
p2853
I3995
sS'bash'
p2854
I449
sS'scathing'
p2855
I3743
sS'thrown'
p2856
I4304
sS'director'
p2857
I1265
sS'owners'
p2858
I3038
sS'bragged'
p2859
I598
sS'uncharted'
p2860
I4470
sS'cremated'
p2861
I1048
sS'launch'
p2862
I2423
sS'worth'
p2863
I4765
sS'finland'
p2864
I1649
sS'success'
p2865
I4120
sS'americas'
p2866
I232
sS'american'
p2867
I230
sS'expecting'
p2868
I1534
sS'threat'
p2869
I4292
sS'leading'
p2870
I2435
sS'syria'
p2871
I4190
sS'apocalypse'
p2872
I276
sS'fallen'
p2873
I1583
sS'lawsuits'
p2874
I2428
sS'oppo'
p2875
I2991
sS'eowyn'
p2876
I1474
sS'feed'
p2877
I1616
sS'farrakhan'
p2878
I1599
sS'dons'
p2879
I1337
sS'dont'
p2880
I1338
sS'lucia'
p2881
I2564
sS'feel'
p2882
I1617
sS'radical'
p2883
I3382
sS'belligerent'
p2884
I492
sS'bullies'
p2885
I645
sS'unlawfully'
p2886
I4500
sS'number'
p2887
I2935
sS'shameful'
p2888
I3836
sS'revive'
p2889
I3592
sS'feet'
p2890
I1619
sS'cada'
p2891
I671
sS'armitage'
p2892
I316
sS'revolution'
p2893
I3595
sS'done'
p2894
I1335
sS'shakes'
p2895
I3834
sS'miss'
p2896
I2733
sS'portraying'
p2897
I3217
sS'horse'
p2898
I2057
sS'supremacists'
p2899
I4150
sS'heads'
p2900
I1966
sS'jew'
p2901
I2286
sS'guaranteeing'
p2902
I1882
sS'script'
p2903
I3767
sS'avec'
p2904
I388
sS'interviews'
p2905
I2215
sS'swipe'
p2906
I4181
sS'threatening'
p2907
I4295
sS'philanthropy'
p2908
I3132
sS'hangs'
p2909
I1926
sS'scholars'
p2910
I3746
sS'180'
p2911
I14
sS'station'
p2912
I4053
sS'quotes'
p2913
I3376
sS'warming'
p2914
I4635
sS'184'
p2915
I15
sS'handshakes'
p2916
I1922
sS'rates'
p2917
I3410
sS'tomi'
p2918
I4334
sS'pence'
p2919
I3103
sS'store'
p2920
I4082
sS'summit'
p2921
I4136
sS'mini'
p2922
I2715
sS'trumpland'
p2923
I4414
sS'pipelines'
p2924
I3153
sS'passed'
p2925
I3080
sS'para'
p2926
I3060
sS'pump'
p2927
I3342
sS'sweet'
p2928
I4177
sS'hotel'
p2929
I2064
sS'immediate'
p2930
I2120
sS'playmate'
p2931
I3170
sS'pockets'
p2932
I3183
sS'part'
p2933
I3072
sS'jordan'
p2934
I2310
sS'signaling'
p2935
I3893
sS'worrying'
p2936
I4762
sS'presstv'
p2937
I3263
sS'slanders'
p2938
I3923
sS'trolls'
p2939
I4398
sS'believe'
p2940
I490
sS'explodes'
p2941
I1541
sS'apprentice'
p2942
I295
sS'king'
p2943
I2374
sS'kind'
p2944
I2372
sS'b'
I401
sS'rebound'
p2945
I3436
sS'kindly'
p2946
I2373
sS'iranian'
p2947
I2237
sS'dossier'
p2948
I1343
sS'gotten'
p2949
I1837
sS'victimization'
p2950
I4569
sS'aims'
p2951
I185
sS'ranging'
p2952
I3400
sS'defends'
p2953
I1174
sS'illegals'
p2954
I2116
sS'states'
p2955
I4051
sS'greg'
p2956
I1864
sS'2020'
p2957
I27
sS'risks'
p2958
I3631
sS'nailed'
p2959
I2835
sS'soaring'
p2960
I3956
sS'toward'
p2961
I4360
sS'ousted'
p2962
I3015
sS'declare'
p2963
I1155
sS'liveris'
p2964
I2516
sS'reflation'
p2965
I3468
sS'indonesia'
p2966
I2168
sS'nominee'
p2967
I2912
sS'strengthen'
p2968
I4095
sS'trumpkin'
p2969
I4413
sS'fights'
p2970
I1634
sS'terrorists'
p2971
I4254
sS'guarding'
p2972
I1886
sS'graffiti'
p2973
I1848
sS'engulf'
p2974
I1463
sS'bhp'
p2975
I512
sS'meltdown'
p2976
I2672
sS'confirms'
p2977
I942
sS'orders'
p2978
I3006
sS'vandalized'
p2979
I4545
sS'sell'
p2980
I3796
sS'lie'
p2981
I2486
sS'gauging'
p2982
I1772
sS'speaking'
p2983
I3992
sS'relationship'
p2984
I3494
sS'evasion'
p2985
I1508
sS'words'
p2986
I4749
sS'blanca'
p2987
I543
sS'lin'
p2988
I2501
sS'cave'
p2989
I745
sS'officers'
p2990
I2962
sS'commemorates'
p2991
I899
sS'payments'
p2992
I3093
sS'walk'
p2993
I4625
sS'also'
p2994
I220
sS'caesar'
p2995
I672
sS'square'
p2996
I4024
sS'build'
p2997
I643
sS'finding'
p2998
I1644
sS'tipp'
p2999
I4322
sS'trumplandia'
p3000
I4415
sS'relief'
p3001
I3499
sS'dernier'
p3002
I1225
sS'play'
p3003
I3166
sS'towards'
p3004
I4361
sS'electric'
p3005
I1425
sS'cargo'
p3006
I719
sS'carolina'
p3007
I721
sS'approves'
p3008
I300
sS'virgin'
p3009
I4588
sS'reach'
p3010
I3417
sS'chart'
p3011
I788
sS'macy'
p3012
I2574
sS'took'
p3013
I4339
sS'leave'
p3014
I2445
sS'76'
p3015
I64
sS'75'
p3016
I61
sS'sponsored'
p3017
I4012
sS'plan'
p3018
I3161
sS'70'
p3019
I60
sS'nothing'
p3020
I2926
sS'accepting'
p3021
I98
sS'achievement'
p3022
I112
sS'constitution'
p3023
I969
sS'reductress'
p3024
I3463
sS'viciously'
p3025
I4567
sS'seize'
p3026
I3792
sS'mobile'
p3027
I2747
sS'clear'
p3028
I846
sS'cover'
p3029
I1026
sS'destruct'
p3030
I1237
sS'cultivating'
p3031
I1076
sS'clean'
p3032
I845
sS'kt'
p3033
I2391
sS'weigh'
p3034
I4675
sS'parody'
p3035
I3071
sS'attacking'
p3036
I365
sS'lying'
p3037
I2568
sS'western'
p3038
I4688
sS'sector'
p3039
I3782
sS'golf'
p3040
I1827
sS'phenomenon'
p3041
I3130
sS'gold'
p3042
I1824
sS'cdc'
p3043
I748
sS'denuclearisation'
p3044
I1204
sS'weapons'
p3045
I4665
sS'celebrities'
p3046
I753
sS'defended'
p3047
I1171
sS'businesses'
p3048
I659
sS'furth'
p3049
I1752
sS'renegotiate'
p3050
I3513
sS'carefully'
p3051
I717
sS'defender'
p3052
I1172
sS'headlines'
p3053
I1965
sS'fine'
p3054
I1647
sS'find'
p3055
I1643
sS'faces'
p3056
I1567
sS'impact'
p3057
I2127
sS'giant'
p3058
I1791
sS'regulations'
p3059
I3483
sS'bff'
p3060
I511
sS'detaining'
p3061
I1241
sS'justice'
p3062
I2333
sS'nervous'
p3063
I2876
sS'writes'
p3064
I4781
sS'moby'
p3065
I2749
sS'penalty'
p3066
I3102
sS'failed'
p3067
I1575
sS'flights'
p3068
I1671
sS'cambriol'
p3069
I685
sS'factor'
p3070
I1570
sS'8'
I65
sS'darwin'
p3071
I1112
sS'cuomo'
p3072
I1077
sS'isolationist'
p3073
I2252
sS'sacking'
p3074
I3690
sS'his'
p3075
I2014
sS'founding'
p3076
I1713
sS'gains'
p3077
I1760
sS'yells'
p3078
I4797
sS'grannys'
p3079
I1853
sS'property'
p3080
I3305
sS'uhlmann'
p3081
I4458
sS'famous'
p3082
I1591
sS'feels'
p3083
I1618
sS'offguardian'
p3084
I2959
sS'during'
p3085
I1382
sS'emails'
p3086
I1433
sS'restart'
p3087
I3567
sS'enemy'
p3088
I1458
sS'catches'
p3089
I734
sS'spikes'
p3090
I4005
sS'sources'
p3091
I3979
sS'celebrates'
p3092
I750
sS'cry'
p3093
I1070
sS'kkk'
p3094
I2376
sS'violent'
p3095
I4585
sS'banking'
p3096
I435
sS'recollection'
p3097
I3450
sS'common'
p3098
I909
sS'activity'
p3099
I122
sS'ivanka'
p3100
I2262
sS'cringe'
p3101
I1052
sS'wrote'
p3102
I4783
sS'insane'
p3103
I2188
sS'legalize'
p3104
I2458
sS'art'
p3105
I327
sS'rocked'
p3106
I3643
sS'dump'
p3107
I1378
sS'creator'
p3108
I1045
sS'declines'
p3109
I1159
sS'activists'
p3110
I121
sS'temporary'
p3111
I4242
sS'sex'
p3112
I3825
sS'manning'
p3113
I2602
sS'see'
p3114
I3784
sS'defense'
p3115
I1175
sS'bare'
p3116
I441
sS'are'
p3117
I308
sS'sea'
p3118
I3770
sS'duma'
p3119
I1376
sS'close'
p3120
I855
sS'yates'
p3121
I4792
sS'locals'
p3122
I2529
sS'seal'
p3123
I3771
sS'knees'
p3124
I2378
sS'workers'
p3125
I4754
sS'threats'
p3126
I4297
sS'expert'
p3127
I1536
sS'offers'
p3128
I2958
sS'erfolg'
p3129
I1484
sS'wow'
p3130
I4770
sS'electoral'
p3131
I1422
sS'saakashvili'
p3132
I3685
sS'rejecting'
p3133
I3490
sS'hollyweird'
p3134
I2034
sS'fans'
p3135
I1592
sS'won'
p3136
I4746
sS'mcmaster'
p3137
I2651
sS'honour'
p3138
I2043
sS'probably'
p3139
I3280
sS'burned'
p3140
I654
sS'berserk'
p3141
I502
sS'supposed'
p3142
I4147
sS'available'
p3143
I387
sS'korea'
p3144
I2385
sS'creating'
p3145
I1044
sS'buoys'
p3146
I649
sS'intimidated'
p3147
I2217
sS'masterful'
p3148
I2630
sS'attention'
p3149
I371
sS'subject'
p3150
I4113
sS'31k'
p3151
I39
sS'aircraft'
p3152
I188
sS'rapid'
p3153
I3407
sS'shades'
p3154
I3831
sS'opposition'
p3155
I2999
sS'percent'
p3156
I3109
sS'betrayed'
p3157
I505
sS'treasury'
p3158
I4383
sS'neocons'
p3159
I2874
sS'both'
p3160
I591
sS'c'
I669
sS'last'
p3161
I2413
sS'influential'
p3162
I2178
sS'treated'
p3163
I4384
sS'considerar'
p3164
I962
sS'feminist'
p3165
I1622
sS'foreign'
p3166
I1701
sS'tweeted'
p3167
I4448
sS'unfavorability'
p3168
I4486
sS'les'
p3169
I2464
sS'tightens'
p3170
I4313
sS'smearing'
p3171
I3944
sS'bond'
p3172
I574
sS'approve'
p3173
I299
sS'finds'
p3174
I1646
sS'load'
p3175
I2522
sS'wear'
p3176
I4666
sS'reject'
p3177
I3489
sS'hackers'
p3178
I1902
sS'jeff'
p3179
I2277
sS'reasons'
p3180
I3432
sS'sky'
p3181
I3919
sS'loan'
p3182
I2524
sS'olle'
p3183
I2973
sS'sweep'
p3184
I4174
sS'improper'
p3185
I2144
sS'agents'
p3186
I174
sS'church'
p3187
I823
sS'sees'
p3188
I3790
sS'mathematically'
p3189
I2635
sS'belt'
p3190
I494
sS'rudy'
p3191
I3667
sS'decline'
p3192
I1158
sS'devil'
p3193
I1246
sS'perspectives'
p3194
I3119
sS'impide'
p3195
I2133
sS'create'
p3196
I1042
sS'implosion'
p3197
I2138
sS'political'
p3198
I3195
sS'due'
p3199
I1374
sS'strategy'
p3200
I4091
sS'wasnt'
p3201
I4646
sS'secret'
p3202
I3779
sS'describes'
p3203
I1227
sS'nato'
p3204
I2852
sS'brick'
p3205
I615
sS'assassinated'
p3206
I345
sS'meeting'
p3207
I2664
sS'pm'
p3208
I3180
sS'firm'
p3209
I1654
sS'sanders'
p3210
I3709
sS'jesuit'
p3211
I2285
sS'lived'
p3212
I2515
sS'roy'
p3213
I3664
sS'gay'
p3214
I1774
sS'boy'
p3215
I594
sS'fire'
p3216
I1650
sS'trashes'
p3217
I4379
sS'scaramuccis'
p3218
I3738
sS'remark'
p3219
I3505
sS'new'
p3220
I2886
sS'gap'
p3221
I1766
sS'anthony'
p3222
I260
sS'fund'
p3223
I1746
sS'lives'
p3224
I2517
sS'demand'
p3225
I1188
sS'insiders'
p3226
I2191
sS'deport'
p3227
I1213
sS'surveys'
p3228
I4160
sS'weinstein'
p3229
I4678
sS'evangelical'
p3230
I1505
sS'hearin'
p3231
I1972
sS'politician'
p3232
I3196
sS'look'
p3233
I2542
sS'indefinitely'
p3234
I2157
sS'judicial'
p3235
I2322
sS'straight'
p3236
I4088
sS'bill'
p3237
I523
sS'tolerate'
p3238
I4332
sS'budget'
p3239
I642
sS'governor'
p3240
I1842
sS'pace'
p3241
I3041
sS'while'
p3242
I4696
sS'replaced'
p3243
I3529
sS'behavior'
p3244
I483
sS'withdrawing'
p3245
I4737
sS'transcripts'
p3246
I4373
sS'whose'
p3247
I4709
sS'gala'
p3248
I1761
sS'shortened'
p3249
I3869
sS'lodges'
p3250
I2535
sS'century'
p3251
I757
sS'backing'
p3252
I410
sS'funded'
p3253
I1747
sS'antithesis'
p3254
I265
sS'stations'
p3255
I4054
sS'hoax'
p3256
I2024
sS'revers'
p3257
I3587
sS'itself'
p3258
I2261
sS'lodged'
p3259
I2534
sS'owes'
p3260
I3035
sS'seen'
p3261
I3789
sS'ready'
p3262
I3425
sS'zieht'
p3263
I4814
sS'leaving'
p3264
I2447
sS'schwarzenegger'
p3265
I3750
sS'decor'
p3266
I1160
sS'shirt'
p3267
I3855
sS'noose'
p3268
I2915
sS'government'
p3269
I1841
sS'shorten'
p3270
I3868
sS'aleppo'
p3271
I196
sS'shackle'
p3272
I3830
sS'grand'
p3273
I1851
sS'9'
I69
sS'conflict'
p3274
I943
sS'henningsen'
p3275
I1991
sS'arrives'
p3276
I326
sS'lawyers'
p3277
I2430
sS'ratings'
p3278
I3413
sS'sums'
p3279
I4137
sS'hopelessly'
p3280
I2050
sS'distrubing'
p3281
I1301
sS'husbands'
p3282
I2088
sS'moment'
p3283
I2760
sS'000'
p3284
I2
sS'moving'
p3285
I2798
sS'decency'
p3286
I1147
sS'revitalization'
p3287
I3590
sS'tweet'
p3288
I4447
sS'brussels'
p3289
I639
sS'celebratory'
p3290
I752
sS'infamous'
p3291
I2174
sS'recent'
p3292
I3443
sS'early'
p3293
I1387
sS'task'
p3294
I4220
sS'mercy'
p3295
I2683
sS'lib'
p3296
I2475
sS'database'
p3297
I1114
sS'spurs'
p3298
I4022
sS'stephanie'
p3299
I4066
sS'limbaugh'
p3300
I2497
sS'chickens'
p3301
I800
sS'spent'
p3302
I4001
sS'analysis'
p3303
I238
sS'maker'
p3304
I2588
sS'sports'
p3305
I4015
sS'person'
p3306
I3115
sS'2gb'
p3307
I35
sS'hags'
p3308
I1906
sS'flags'
p3309
I1664
sS'kelly'
p3310
I2349
sS'entry'
p3311
I1470
sS'self'
p3312
I3795
sS'ambassador'
p3313
I226
sS'collectivism'
p3314
I882
sS'settlements'
p3315
I3823
sS'austyn'
p3316
I380
sS'isolated'
p3317
I2251
sS'symbolism'
p3318
I4188
sS'repealing'
p3319
I3525
sS'openly'
p3320
I2987
sS'whitson'
p3321
I4706
sS'questions'
p3322
I3368
sS'stunt'
p3323
I4109
sS'vigilant'
p3324
I4581
sS'love'
p3325
I2557
sS'taiwan'
p3326
I4201
sS'prince'
p3327
I3275
sS'network'
p3328
I2879
sS'letting'
p3329
I2470
sS'cut'
p3330
I1083
sS'donaldbreaux'
p3331
I1333
sS'threatened'
p3332
I4294
sS'advisers'
p3333
I147
sS'admission'
p3334
I138
sS'deputy'
p3335
I1221
sS'throats'
p3336
I4300
sS'barack'
p3337
I440
sS'shouting'
p3338
I3872
sS'rockets'
p3339
I3645
sS'eslake'
p3340
I1494
sS'deliberately'
p3341
I1183
sS'crying'
p3342
I1071
sS'win'
p3343
I4722
sS'infowarriors'
p3344
I2181
sS'guarantees'
p3345
I1883
sS'slave'
p3346
I3929
sS'excited'
p3347
I1522
sS'chairman'
p3348
I763
sS'lampooning'
p3349
I2406
sS'freefall'
p3350
I1726
sS'customers'
p3351
I1082
sS'australia'
p3352
I377
sS'march'
p3353
I2612
sS'emergency'
p3354
I1438
sS'demands'
p3355
I1189
sS'big'
p3356
I516
sS'bid'
p3357
I514
sS'advocate'
p3358
I152
sS'results'
p3359
I3575
sS'vital'
p3360
I4596
sS'matters'
p3361
I2638
sS'game'
p3362
I1764
sS'biz'
p3363
I536
sS'narcissist'
p3364
I2842
sS'formal'
p3365
I1706
sS'75th'
p3366
I63
sS'd'
I1089
sS'shaped'
p3367
I3838
sS'confront'
p3368
I946
sS'signal'
p3369
I3892
sS'vatican'
p3370
I4549
sS'rider'
p3371
I3608
sS'heart'
p3372
I1974
sS'communications'
p3373
I913
sS'continue'
p3374
I977
sS'provoking'
p3375
I3329
sS'popular'
p3376
I3208
sS'weiner'
p3377
I4677
sS'foolish'
p3378
I1691
sS'disorder'
p3379
I1292
sS'names'
p3380
I2840
sS'spokeswoman'
p3381
I4010
sS'google'
p3382
I1830
sS'partying'
p3383
I3078
sS'parade'
p3384
I3061
sS'jibes'
p3385
I2290
sS'senate'
p3386
I3801
sS'extremism'
p3387
I1559
sS'magnificent'
p3388
I2581
sS'back'
p3389
I405
sS'bounce'
p3390
I592
sS'loser'
p3391
I2549
sS'economic'
p3392
I1396
sS'admitted'
p3393
I141
sS'erupts'
p3394
I1488
sS'server'
p3395
I3814
sS'ourselves'
p3396
I3014
sS'minefield'
p3397
I2714
sS'haward'
p3398
I1959
sS'pyne'
p3399
I3360
sS'savage'
p3400
I3720
sS'chumps'
p3401
I822
sS'unleashes'
p3402
I4502
sS'waxworks'
p3403
I4658
sS'contacts'
p3404
I975
sS'prison'
p3405
I3277
sS'decision'
p3406
I1151
sS'hombres'
p3407
I2038
sS'waterboard'
p3408
I4653
sS'per'
p3409
I3108
sS'nach'
p3410
I2833
sS'religion'
p3411
I3500
sS'pen'
p3412
I3100
sS'bogus'
p3413
I569
sS'slash'
p3414
I3925
sS'goldman'
p3415
I1826
sS'prof'
p3416
I3286
sS'epic'
p3417
I1476
sS'forgets'
p3418
I1704
sS'likud'
p3419
I2496
sS'nose'
p3420
I2921
sS'tuned'
p3421
I4432
sS'be'
p3422
I461
sS'run'
p3423
I3672
sS'word'
p3424
I4748
sS'jumps'
p3425
I2328
sS'lose'
p3426
I2548
sS'agreement'
p3427
I178
sS'306'
p3428
I38
sS'stem'
p3429
I4064
sS'rent'
p3430
I3517
sS'chanting'
p3431
I777
sS'santa'
p3432
I3712
sS'tabloid'
p3433
I4196
sS'refuses'
p3434
I3473
sS'metaphor'
p3435
I2690
sS'major'
p3436
I2585
sS'dictated'
p3437
I1250
sS'by'
p3438
I667
sS'varghese'
p3439
I4548
sS'mistrust'
p3440
I2743
sS'faith'
p3441
I1580
sS'pipeline'
p3442
I3152
sS'cautious'
p3443
I744
sS'usa'
p3444
I4531
sS'anything'
p3445
I270
sS'chomsky'
p3446
I810
sS'robbers'
p3447
I3639
sS'firing'
p3448
I1653
sS'truck'
p3449
I4401
sS'jake'
p3450
I2268
sS'trucking'
p3451
I4402
sS'melbourne'
p3452
I2671
sS'deserves'
p3453
I1228
sS'range'
p3454
I3399
sS'regular'
p3455
I3481
sS'greets'
p3456
I1863
sS'disrobes'
p3457
I1297
sS'tillerson'
p3458
I4315
sS'congressman'
p3459
I955
sS'hatred'
p3460
I1948
sS'complimentary'
p3461
I926
sS'bluster'
p3462
I563
sS'block'
p3463
I551
sS'opioid'
p3464
I2990
sS'clinton'
p3465
I850
sS'cbs4'
p3466
I747
sS'orb'
p3467
I3003
sS'beatdown'
p3468
I465
sS'visit'
p3469
I4593
sS'decertify'
p3470
I1148
sS'shrugs'
p3471
I3882
sS'nonsense'
p3472
I2914
sS'framed'
p3473
I1716
sS'appropriate'
p3474
I297
sS'scamming'
p3475
I3733
sS'durchsetzen'
p3476
I1381
sS'controversies'
p3477
I983
sS'climactic'
p3478
I848
sS'france'
p3479
I1717
sS'lebron'
p3480
I2448
sS'rolls'
p3481
I3654
sS'unfair'
p3482
I4484
sS'reworked'
p3483
I3598
sS'impressed'
p3484
I2143
sS'story'
p3485
I4087
sS'warned'
p3486
I4638
sS'spending'
p3487
I4000
sS'exposed'
p3488
I1548
sS'question'
p3489
I3367
sS'msm'
p3490
I2802
sS'long'
p3491
I2540
sS'pharmaceuticals'
p3492
I3127
sS'turnbull'
p3493
I4438
sS'camera'
p3494
I687
sS'addicting'
p3495
I130
sS'rowe'
p3496
I3663
sS'forward'
p3497
I1709
sS'sich'
p3498
I3885
sS'keating'
p3499
I2344
sS'bored'
p3500
I586
sS'scared'
p3501
I3741
sS'opens'
p3502
I2988
sS'opposed'
p3503
I2996
sS'files'
p3504
I1637
sS'mountains'
p3505
I2790
sS'himself'
p3506
I2010
sS'russias'
p3507
I3681
sS'hawaiian'
p3508
I1958
sS'driverless'
p3509
I1365
sS'jewish'
p3510
I2287
sS'poster'
p3511
I3226
sS'dips'
p3512
I1263
sS'brazenness'
p3513
I602
sS'immigration'
p3514
I2125
sS'timetable'
p3515
I4320
sS'link'
p3516
I2504
sS'gallup'
p3517
I1762
sS'sick'
p3518
I3886
sS'hopes'
p3519
I2051
sS'line'
p3520
I2502
sS'brokenhearted'
p3521
I630
sS'junior'
p3522
I2330
sS'posted'
p3523
I3225
sS'info'
p3524
I2179
sS'hush'
p3525
I2089
sS'cia'
p3526
I824
sS'trumptapes'
p3527
I4422
sS'sounds'
p3528
I3977
sS'lament'
p3529
I2405
sS'up'
p3530
I4517
sS'us'
p3531
I4530
sS'stops'
p3532
I4081
sS'preemptive'
p3533
I3248
sS'time'
p3534
I4318
sS'uk'
p3535
I4459
sS'rallies'
p3536
I3391
sS'highlight'
p3537
I2003
sS'weaken'
p3538
I4663
sS'similar'
p3539
I3899
sS'called'
p3540
I679
sS'uber'
p3541
I4456
sS'camp'
p3542
I688
sS'ordered'
p3543
I3005
sS'trumplon'
p3544
I4416
sS'gunpoint'
p3545
I1893
sS'haunt'
p3546
I1950
sS'doesn'
p3547
I1319
sS'reopening'
p3548
I3519
sS'divisive'
p3549
I1310
sS'associates'
p3550
I354
sS'necks'
p3551
I2862
sS'paddock'
p3552
I3045
sS'rally'
p3553
I3392
sS'cafe'
p3554
I673
sS'graham'
p3555
I1849
sS'hail'
p3556
I1907
sS'shipwreck'
p3557
I3853
sS'independents'
p3558
I2160
sS'thugs'
p3559
I4307
sS'nostradamus'
p3560
I2923
sS'swamp'
p3561
I4169
sS'whack'
p3562
I4689
sS'peace'
p3563
I3097
sS'fears'
p3564
I1612
sS'backs'
p3565
I412
sS'intensifying'
p3566
I2206
sS'politicians'
p3567
I3197
sS'actors'
p3568
I124
sS'income'
p3569
I2152
sS'department'
p3570
I1207
sS'assassinate'
p3571
I344
sS'verrender'
p3572
I4557
sS'mock'
p3573
I2750
sS'nice'
p3574
I2895
sS'draw'
p3575
I1357
sS'intensifies'
p3576
I2205
sS'scandals'
p3577
I3736
sS'kansas'
p3578
I2337
sS'visits'
p3579
I4594
sS'frances'
p3580
I1718
sS'helping'
p3581
I1987
sS'intensified'
p3582
I2204
sS'meaning'
p3583
I2655
sS'evan'
p3584
I1504
sS'suppression'
p3585
I4148
sS'prepares'
p3586
I3252
sS'hanson'
p3587
I1927
sS'song'
p3588
I3968
sS'unleash'
p3589
I4501
sS'springsteen'
p3590
I4020
sS'ago'
p3591
I175
sS'night'
p3592
I2901
sS'land'
p3593
I2407
sS'e'
I1385
sS'practically'
p3594
I3236
sS'we'
p3595
I4661
sS'age'
p3596
I170
sS'vow'
p3597
I4612
sS'bankers'
p3598
I434
sS'constance'
p3599
I968
sS'feud'
p3600
I1626
sS'ki'
p3601
I2357
sS'implied'
p3602
I2135
sS'agalarov'
p3603
I169
sS'leak'
p3604
I2437
sS'everywhere'
p3605
I1516
sS'2008'
p3606
I24
sS'humiliates'
p3607
I2079
sS'consortiumnews'
p3608
I966
sS'having'
p3609
I1955
sS'once'
p3610
I2976
sS'watergate'
p3611
I4654
sS'scaramucci'
p3612
I3737
sS'amish'
p3613
I234
sS'jason'
p3614
I2274
sS'wire'
p3615
I4729
sS'restraining'
p3616
I3570
sS'effigy'
p3617
I1410
sS'lean'
p3618
I2441
sS'secretary'
p3619
I3780
sS'resistance'
p3620
I3557
sS'soften'
p3621
I3959
sS'alien'
p3622
I201
sS'spring'
p3623
I4019
sS'vanga'
p3624
I4547
sS'sanctuary'
p3625
I3708
sS'mosul'
p3626
I2784
sS'mcmullin'
p3627
I2652
sS'go'
p3628
I1816
sS'arpaio'
p3629
I321
sS'moon'
p3630
I2769
sS'recommits'
p3631
I3451
sS'issues'
p3632
I2257
sS'rebels'
p3633
I3435
sS'pervert'
p3634
I3121
sS'birthplace'
p3635
I533
sS'stunned'
p3636
I4107
sS'vietnamese'
p3637
I4578
sS'iii'
p3638
I2111
sS'mosque'
p3639
I2782
sS'young'
p3640
I4802
sS'send'
p3641
I3803
sS'fascist'
p3642
I1601
sS'helps'
p3643
I1988
sS'voldemort'
p3644
I4601
sS'maryland'
p3645
I2625
sS'through'
p3646
I4302
sS'dramatically'
p3647
I1356
sS'sent'
p3648
I3807
sS'confirmation'
p3649
I940
sS'rollback'
p3650
I3651
sS'mainstream'
p3651
I2584
sS'outside'
p3652
I3024
sS'continues'
p3653
I979
sS'reopened'
p3654
I3518
sS'intel'
p3655
I2201
sS'manipulated'
p3656
I2601
sS'facebook'
p3657
I1565
sS'literally'
p3658
I2511
sS'llama'
p3659
I2521
sS'materialise'
p3660
I2633
sS'assad'
p3661
I342
sS'drinking'
p3662
I1364
sS'toujours'
p3663
I4355
sS'continued'
p3664
I978
sS'vist'
p3665
I4595
sS'service'
p3666
I3815
sS'testimony'
p3667
I4259
sS'succeed'
p3668
I4119
sS'avoir'
p3669
I393
sS'button'
p3670
I664
sS'laguardia'
p3671
I2402
sS'michael'
p3672
I2697
sS'populist'
p3673
I3211
sS'murdoch'
p3674
I2815
sS'anxious'
p3675
I267
sS'robart'
p3676
I3636
sS'race'
p3677
I3378
sS'polling'
p3678
I3200
sS'dealt'
p3679
I1135
sS'zero'
p3680
I4812
sS'mobilize'
p3681
I2748
sS'havent'
p3682
I1954
sS'enforce'
p3683
I1460
sS'bernie'
p3684
I501
sS'pleas'
p3685
I3174
sS'victim'
p3686
I4568
sS'pledge'
p3687
I3176
sS'ibd'
p3688
I2097
sS'overshadows'
p3689
I3030
sS'wrestling'
p3690
I4777
sS'ham'
p3691
I1915
sS'hyde'
p3692
I2091
sS'anoymous'
p3693
I256
sS'video'
p3694
I4576
sS'jared'
p3695
I2273
sS'licenses'
p3696
I2484
sS'hubris'
p3697
I2073
sS'makers'
p3698
I2589
sS'staffers'
p3699
I4030
sS'plays'
p3700
I3171
sS'hissy'
p3701
I2016
sS'showcase'
p3702
I3876
sS'giving'
p3703
I1802
sS'anthem'
p3704
I259
sS'saw'
p3705
I3725
sS'expressed'
p3706
I1552
sS'networks'
p3707
I2880
sS'access'
p3708
I100
sS'seconds'
p3709
I3778
sS'waiting'
p3710
I4622
sS'experiment'
p3711
I1535
sS'turnaround'
p3712
I4437
sS'capital'
p3713
I707
sS'expresses'
p3714
I1553
sS'charade'
p3715
I780
sS'bird'
p3716
I531
sS'nazis'
p3717
I2854
sS'unidos'
p3718
I4491
sS'body'
p3719
I568
sS'scepticism'
p3720
I3744
sS'focuses'
p3721
I1685
sS'led'
p3722
I2452
sS'bazinga'
p3723
I459
sS'stance'
p3724
I4038
sS'leg'
p3725
I2455
sS'pushing'
p3726
I3353
sS'commercial'
p3727
I903
sS'punch'
p3728
I3343
sS'eminem'
p3729
I1440
sS'save'
p3730
I3722
sS'following'
p3731
I1688
sS'intercept'
p3732
I2207
sS'let'
p3733
I2467
sS'healing'
p3734
I1967
sS'others'
p3735
I3012
sS'hobart'
p3736
I2027
sS'sing'
p3737
I3904
sS'scrapped'
p3738
I3760
sS'invented'
p3739
I2224
sS'talked'
p3740
I4210
sS'kidnapped'
p3741
I2363
sS'extreme'
p3742
I1558
sS'ukraine'
p3743
I4460
sS'great'
p3744
I1856
sS'engage'
p3745
I1461
sS'likened'
p3746
I2495
sS'kissinger'
p3747
I2375
sS'distressed'
p3748
I1300
sS'32'
p3749
I40
sS'until'
p3750
I4512
sS'30'
p3751
I37
sS'37'
p3752
I44
sS'35'
p3753
I43
sS'34'
p3754
I41
sS'suggests'
p3755
I4132
sS'janus'
p3756
I2271
sS'erster'
p3757
I1486
sS'haitians'
p3758
I1910
sS'jerusalems'
p3759
I2283
sS'defeat'
p3760
I1166
sS'existent'
p3761
I1527
sS'opinion'
p3762
I2989
sS'residents'
p3763
I3553
sS'makes'
p3764
I2590
sS'hrw'
p3765
I2072
sS'named'
p3766
I2839
sS'addresses'
p3767
I132
sS'danger'
p3768
I1103
sS'egypt'
p3769
I1411
sS'presidents'
p3770
I3259
sS'terrified'
p3771
I4249
sS'private'
p3772
I3278
sS'minnesota'
p3773
I2720
sS'richest'
p3774
I3605
sS'moonlighting'
p3775
I2770
sS'limo'
p3776
I2500
sS'motor'
p3777
I2788
sS'dumbest'
p3778
I1377
sS'wil'
p3779
I4717
sS'scandal'
p3780
I3734
sS'redo'
p3781
I3462
sS'presidente'
p3782
I3257
sS'standing'
p3783
I4041
sS'froh'
p3784
I1732
sS'confidence'
p3785
I937
sS'from'
p3786
I1733
sS'inspiration'
p3787
I2194
sS'remains'
p3788
I3504
sS'illegal'
p3789
I2114
sS'totalement'
p3790
I4349
sS'next'
p3791
I2892
sS'few'
p3792
I1627
sS'doubt'
p3793
I1344
sS'alrededor'
p3794
I218
sS'lock'
p3795
I2530
sS'binges'
p3796
I530
sS'congratulates'
p3797
I952
sS'means'
p3798
I2656
sS'stage'
p3799
I4031
sS'start'
p3800
I4046
sS'trumpflation'
p3801
I4412
sS'baba'
p3802
I402
sS'bureaucracy'
p3803
I650
sS'sons'
p3804
I3970
sS'parliament'
p3805
I3068
sS'formally'
p3806
I1707
sS'journalists'
p3807
I2314
sS'kim'
p3808
I2371
sS'becomes'
p3809
I472
sS'impress'
p3810
I2142
sS'blindsides'
p3811
I549
sS'visibility'
p3812
I4591
sS'missile'
p3813
I2735
sS'dealings'
p3814
I1133
sS'heil'
p3815
I1982
sS'opposing'
p3816
I2997
sS'israelis'
p3817
I2255
sS'labelled'
p3818
I2397
sS'ashamed'
p3819
I333
sS'recount'
p3820
I3455
sS'baby'
p3821
I404
sS'antichrist'
p3822
I262
sS'appointee'
p3823
I291
sS'appointed'
p3824
I290
sS'hints'
p3825
I2012
sS'terminally'
p3826
I4247
sS'high'
p3827
I2001
sS'account'
p3828
I105
sS'fooling'
p3829
I1690
sS'were'
p3830
I4686
sS'fulfils'
p3831
I1741
sS'f'
I1562
sS'this'
p3832
I4289
sS'challenge'
p3833
I766
sS'oh'
p3834
I2966
sS'insists'
p3835
I2193
sS'pour'
p3836
I3230
sS'prompts'
p3837
I3301
sS'of'
p3838
I2954
sS'meet'
p3839
I2663
sS'closing'
p3840
I859
sS'drops'
p3841
I1370
sS'didnt'
p3842
I1253
sS'proof'
p3843
I3302
sS'control'
p3844
I981
sS'beijing'
p3845
I487
sS'turncoats'
p3846
I4440
sS'money'
p3847
I2763
sS'patrol'
p3848
I3088
sS'hides'
p3849
I2000
sS'links'
p3850
I2506
sS'favorite'
p3851
I1606
sS'slim'
p3852
I3935
sS'halloween'
p3853
I1913
sS'escaped'
p3854
I1492
sS'professor'
p3855
I3288
sS'pulling'
p3856
I3340
sS'bend'
p3857
I496
sS'slip'
p3858
I3936
sS'recklessly'
p3859
I3445
sS'blvd'
p3860
I564
sS'hit'
p3861
I2020
sS'enrique'
p3862
I1465
sS'texas'
p3863
I4262
sS'trumpet'
p3864
I4410
sS'molodets'
p3865
I2758
sS'investment'
p3866
I2228
sS'native'
p3867
I2851
sS'ideology'
p3868
I2101
sS'provoke'
p3869
I3328
sS'three'
p3870
I4298
sS'outsiders'
p3871
I3025
sS'democracy'
p3872
I1192
sS'guru'
p3873
I1895
sS'holds'
p3874
I2032
sS'inaugural'
p3875
I2148
sS'tom'
p3876
I4333
sS'panellist'
p3877
I3054
sS'mujer'
p3878
I2807
sS'brian'
p3879
I613
sS'surely'
p3880
I4154
sS'rape'
p3881
I3405
sS'dismissing'
p3882
I1288
sS'slamming'
p3883
I3921
sS'instead'
p3884
I2198
sS'comedy'
p3885
I892
sS'establishment'
p3886
I1495
sS'memoir'
p3887
I2676
sS'sil'
p3888
I3898
sS'profile'
p3889
I3289
sS'tension'
p3890
I4244
sS'blocks'
p3891
I552
sS'hitches'
p3892
I2021
sS'attend'
p3893
I369
sS'terrible'
p3894
I4248
sS'stop'
p3895
I4080
sS'waters'
p3896
I4655
sS'await'
p3897
I394
sS'masks'
p3898
I2627
sS'nullify'
p3899
I2934
sS'abuse'
p3900
I92
sS'bluff'
p3901
I562
sS'whistles'
p3902
I4702
sS'fits'
p3903
I1658
sS'ties'
p3904
I4310
sS'worried'
p3905
I4759
sS'sie'
p3906
I3890
sS'united'
p3907
I4495
sS'tats'
p3908
I4222
sS'together'
p3909
I4328
sS'counter'
p3910
I1017
sS'duterte'
p3911
I1383
sS'robot'
p3912
I3642
sS'obama'
p3913
I2944
sS'primera'
p3914
I3273
sS'bakery'
p3915
I417
sS'advocates'
p3916
I153
sS'spain'
p3917
I3985
sS'voleurs'
p3918
I4602
sS'allow'
p3919
I210
sS'healthcare'
p3920
I1969
sS'lakshmima'
p3921
I2404
sS'haunted'
p3922
I1951
sS'stakes'
p3923
I4034
sS'counted'
p3924
I1016
sS'jnr'
p3925
I2295
sS'six'
p3926
I3910
sS'comms'
p3927
I910
sS'geopolitics'
p3928
I1780
sS'move'
p3929
I2792
sS'outage'
p3930
I3017
sS'poetry'
p3931
I3187
sS'alliance'
p3932
I208
sS'looks'
p3933
I2545
sS'horns'
p3934
I2053
sS'subpoenaed'
p3935
I4115
sS'electors'
p3936
I1424
sS'onboard'
p3937
I2975
sS'badges'
p3938
I415
sS'warren'
p3939
I4641
sS'perfect'
p3940
I3110
sS'chemical'
p3941
I796
sS'le'
p3942
I2431
sS'la'
p3943
I2395
sS'chosen'
p3944
I813
sS'guerrilla'
p3945
I1888
sS'glee'
p3946
I1804
sS'backers'
p3947
I408
sS'victoire'
p3948
I4572
sS'him'
p3949
I2009
sS'blatant'
p3950
I546
sS'restrain'
p3951
I3569
sS'choose'
p3952
I811
sS'fidel'
p3953
I1628
sS'hillarist'
p3954
I2007
sS'covered'
p3955
I1028
sS'2017'
p3956
I26
sS'2016'
p3957
I25
sS'crowds'
p3958
I1063
sS'image'
p3959
I2118
sS'elites'
p3960
I1430
sS'dad'
p3961
I1091
sS'morgen'
p3962
I2774
sS'crash'
p3963
I1039
sS'scotus'
p3964
I3757
sS'grievances'
p3965
I1866
sS'washington'
p3966
I4645
sS'dan'
p3967
I1101
sS'endorsement'
p3968
I1455
sS'kikes'
p3969
I2366
sS'commitment'
p3970
I905
sS'mention'
p3971
I2681
sS'cutting'
p3972
I1085
sS'ferguson'
p3973
I1624
sS'yuge'
p3974
I4809
sS'hands'
p3975
I1920
sS'souza'
p3976
I3982
sS'republican'
p3977
I3545
sS'flee'
p3978
I1670
sS'day'
p3979
I1121
sS'presidential'
p3980
I3258
sS'turks'
p3981
I4434
sS'peaceful'
p3982
I3098
sS'thousands'
p3983
I4291
sS'greens'
p3984
I1861
sS'beijings'
p3985
I488
sS'university'
p3986
I4498
sS'countries'
p3987
I1020
sS'begs'
p3988
I481
sS'billy'
p3989
I529
sS'morris'
p3990
I2778
sS'denzel'
p3991
I1206
sS'trap'
p3992
I4377
sS'truth'
p3993
I4425
sS'unveiling'
p3994
I4513
sS'modi'
p3995
I2756
sS'stock'
p3996
I4076
sS'nationals'
p3997
I2848
sS'accusers'
p3998
I109
sS'unwind'
p3999
I4516
sS'eastern'
p4000
I1392
sS'sydney'
p4001
I4187
sS'unmet'
p4002
I4503
sS'met'
p4003
I2688
sS'barnett'
p4004
I444
sS'snaps'
p4005
I3948
sS'supermodel'
p4006
I4139
sS'wade'
p4007
I4620
sS'83'
p4008
I66
sS'agriculture'
p4009
I180
sS'87'
p4010
I67
sS'special'
p4011
I3994
sS'out'
p4012
I3016
sS'respects'
p4013
I3561
sS'matt'
p4014
I2636
sS'lushsux'
p4015
I2567
sS'cocktail'
p4016
I873
sS'sentiment'
p4017
I3808
sS'rigging'
p4018
I3614
sS'announces'
p4019
I253
sS'defend'
p4020
I1170
sS'chaos'
p4021
I779
sS'escalate'
p4022
I1490
sS'activist'
p4023
I120
sS'arkansas'
p4024
I312
sS'hilarious'
p4025
I2006
sS'deloitte'
p4026
I1187
sS'lecture'
p4027
I2449
sS'burka'
p4028
I652
sS'cause'
p4029
I740
sS'announced'
p4030
I251
sS'achievements'
p4031
I113
sS'pawns'
p4032
I3091
sS'granddaughter'
p4033
I1852
sS'frank'
p4034
I1720
sS'reacts'
p4035
I3423
sS'withdrawal'
p4036
I4736
sS'humiliating'
p4037
I2080
sS'delegates'
p4038
I1179
sS'voids'
p4039
I4600
sS'embassy'
p4040
I1436
sS'clarify'
p4041
I837
sS'approaches'
p4042
I296
sS'que'
p4043
I3365
sS'intruder'
p4044
I2223
sS'advisor'
p4045
I149
sS'conflicts'
p4046
I945
sS'van'
p4047
I4542
sS'philip'
p4048
I3133
sS'sweeps'
p4049
I4176
sS'scary'
p4050
I3742
sS'allies'
p4051
I209
sS'cair'
p4052
I674
sS'spill'
p4053
I4006
sS'steal'
p4054
I4059
sS'could'
p4055
I1007
sS'florida'
p4056
I1678
sS'david'
p4057
I1120
sS'conversation'
p4058
I987
sS'mein'
p4059
I2669
sS'repeats'
p4060
I3527
sS'museum'
p4061
I2818
sS'robberies'
p4062
I3638
sS'worse'
p4063
I4763
sS'evans'
p4064
I1507
sS'student'
p4065
I4104
sS'muslims'
p4066
I2825
sS'owned'
p4067
I3037
sS'philadelphia'
p4068
I3131
sS'emmanual'
p4069
I1442
sS'mocks'
p4070
I2753
sS'set'
p4071
I3817
sS'puppet'
p4072
I3347
sS'khans'
p4073
I2356
sS'wikileaks'
p4074
I4716
sS'blows'
p4075
I560
sS'vandal'
p4076
I4543
sS'traders'
p4077
I4366
sS'warm'
p4078
I4634
sS'killer'
p4079
I2370
sS'reinvigorates'
p4080
I3488
sS'porque'
p4081
I3215
sS'revealed'
p4082
I3584
sS'vulgar'
p4083
I4616
sS'97yo'
p4084
I74
sS'relations'
p4085
I3493
sS'mccains'
p4086
I2645
sS'their'
p4087
I4270
sS'attack'
p4088
I362
sS'trending'
p4089
I4387
sS'savchenko'
p4090
I3721
sS'intelligence'
p4091
I2202
sS'palestine'
p4092
I3049
sS'perfectly'
p4093
I3111
sS'final'
p4094
I1638
sS'interests'
p4095
I2209
sS'vid'
p4096
I4575
sS'shell'
p4097
I3848
sS'stars'
p4098
I4045
sS'academy'
p4099
I95
sS'doomed'
p4100
I1340
sS'exactly'
p4101
I1520
sS'jinpings'
p4102
I2293
sS'israeli'
p4103
I2254
sS'depressing'
p4104
I1220
sS'sofort'
p4105
I3958
sS'nieto'
p4106
I2899
sS'too'
p4107
I4338
sS'applauds'
p4108
I288
sS'wanted'
p4109
I4631
sS'deniro'
p4110
I1202
sS'july'
p4111
I2326
sS'elite'
p4112
I1429
sS'steel'
p4113
I4061
sS'loved'
p4114
I2558
sS'bei'
p4115
I486
sS'ben'
p4116
I495
sS'minister'
p4117
I2717
sS'things'
p4118
I4284
sS'taken'
p4119
I4204
sS'thug'
p4120
I4306
sS'bee'
p4121
I475
sS'probe'
p4122
I3281
sS'sweden'
p4123
I4172
sS'psalm'
p4124
I3331
sS'briefing'
p4125
I619
sS'flashes'
p4126
I1668
sS'wheelchair'
p4127
I4692
sS'bet'
p4128
I504
sS'oligarch'
p4129
I2970
sS'rips'
p4130
I3626
sS'accusing'
p4131
I111
sS'false'
p4132
I1587
sS'julian'
p4133
I2324
sS'corrupt'
p4134
I1005
sS'defending'
p4135
I1173
sS'have'
p4136
I1953
sS'tpp'
p4137
I4363
sS'need'
p4138
I2863
sS'turn'
p4139
I4436
sS'apparently'
p4140
I281
sS'linked'
p4141
I2505
sS'whines'
p4142
I4698
sS'tale'
p4143
I4208
sS'microphone'
p4144
I2700
sS'demolishes'
p4145
I1198
sS'europes'
p4146
I1503
sS'koreas'
p4147
I2388
sS'skittles'
p4148
I3918
sS'mic'
p4149
I2696
sS'marais'
p4150
I2610
sS'able'
p4151
I86
sS'chief'
p4152
I801
sS'battles'
p4153
I457
sS'rejects'
p4154
I3491
sS'bloodbath'
p4155
I555
sS'concerns'
p4156
I930
sS'neomasculinity'
p4157
I2875
sS'remarks'
p4158
I3506
sS'ministerien'
p4159
I2718
sS'so'
p4160
I3955
sS'korean'
p4161
I2386
sS'latino'
p4162
I2417
sS'abductions'
p4163
I83
sS'worldwide'
p4164
I4758
sS'lectures'
p4165
I2450
sS'nytimes'
p4166
I2941
sS'agenda'
p4167
I172
sS'clash'
p4168
I840
sS'deploy'
p4169
I1212
sS'bookooball'
p4170
I579
sS'tapper'
p4171
I4216
sS'naranja'
p4172
I2841
sS'caputo'
p4173
I710
sS'sc'
p4174
I3730
sS'said'
p4175
I3696
sS'demise'
p4176
I1191
sS'satire'
p4177
I3716
sS'alarmed'
p4178
I193
sS'sally'
p4179
I3699
sS'class'
p4180
I841
sS'police'
p4181
I3192
sS'prove'
p4182
I3321
sS'deny'
p4183
I1205
sS'abetz'
p4184
I85
sS'spontaneou'
p4185
I4013
sS'consequences'
p4186
I959
sS'appallingly'
p4187
I279
sS'ensues'
p4188
I1466
sS'stronger'
p4189
I4102
sS'thanksgiving'
p4190
I4267
sS'face'
p4191
I1564
sS'cloaked'
p4192
I853
sS'absurd'
p4193
I91
sS'movie'
p4194
I2797
sS'businessman'
p4195
I660
sS'fact'
p4196
I1569
sS'goals'
p4197
I1818
sS'son'
p4198
I3967
sS'affair'
p4199
I154
sS'atmosphere'
p4200
I361
sS'latinos'
p4201
I2418
sS'charles'
p4202
I785
sS'pussy'
p4203
I3355
sS'anyway'
p4204
I271
sS'disbanded'
p4205
I1273
sS'watch'
p4206
I4649
sS'bring'
p4207
I622
sS'planning'
p4208
I3163
sS'traitor'
p4209
I4371
sS'democrats'
p4210
I1195
sS'rebuke'
p4211
I3438
sS'soldiers'
p4212
I3963
sS'fear'
p4213
I1609
sS'darkest'
p4214
I1110
sS'economist'
p4215
I1398
sS'debate'
p4216
I1140
sS'shoes'
p4217
I3863
sS'nftig'
p4218
I2894
sS'o'
I2942
sS'envy'
p4219
I1473
sS'trying'
p4220
I4428
sS'based'
p4221
I448
sS'knowledge'
p4222
I2383
sS'sheriff'
p4223
I3849
sS'jay'
p4224
I2276
sS'sparks'
p4225
I3988
sS'jaw'
p4226
I2275
sS'winner'
p4227
I4725
sS'colbert'
p4228
I878
sS'fumbles'
p4229
I1743
sS'should'
p4230
I3871
sS'betsy'
p4231
I506
sS'dreamers'
p4232
I1362
sS'candidates'
p4233
I701
sS'notes'
p4234
I2925
sS'gradual'
p4235
I1847
sS'employee'
p4236
I1445
sS'he'
p4237
I1962
sS'gillard'
p4238
I1793
sS'hope'
p4239
I2047
sS'meant'
p4240
I2657
sS'prosecute'
p4241
I3310
sS'sued'
p4242
I4125
sS'handle'
p4243
I1919
sS'globalist'
p4244
I1809
sS'cuba'
p4245
I1072
sS'beat'
p4246
I464
sS'michigan'
p4247
I2699
sS'props'
p4248
I3309
sS'impeachment'
p4249
I2130
sS'sart'
p4250
I3715
sS'made'
p4251
I2577
sS'sues'
p4252
I4127
sS'fallout'
p4253
I1585
sS'tossed'
p4254
I4347
sS'remembers'
p4255
I3509
sS'places'
p4256
I3159
sS'gorsuch'
p4257
I1835
sS'married'
p4258
I2623
sS'taxes'
p4259
I4226
sS'calling'
p4260
I680
sS'reid'
p4261
I3485
sS'she'
p4262
I3847
sS'ohio'
p4263
I2967
sS'grab'
p4264
I1843
sS'widow'
p4265
I4712
sS'spotted'
p4266
I4016
sS'europe'
p4267
I1501
sS'official'
p4268
I2963
sS'accuses'
p4269
I110
sS'prayers'
p4270
I3240
sS'national'
p4271
I2847
sS'shake'
p4272
I3833
sS'veto'
p4273
I4564
sS'revolutions'
p4274
I3596
sS'flip'
p4275
I1672
sS'cairns'
p4276
I675
sS'accused'
p4277
I108
sS'parnell'
p4278
I3069
sS'desperate'
p4279
I1231
sS'confrontational'
p4280
I947
sS'packed'
p4281
I3043
sS'awaits'
p4282
I395
sS'closer'
p4283
I857
sS'closes'
p4284
I858
sS'recruits'
p4285
I3459
sS'still'
p4286
I4073
sS'televised'
p4287
I4237
sS'wa'
p4288
I4618
sS'maddow'
p4289
I2576
sS'reform'
p4290
I3470
sS'genius'
p4291
I1779
sS'nightmare'
p4292
I2902
sS'missing'
p4293
I2737
sS'macron'
p4294
I2573
sS'mexicano'
p4295
I2692
sS'slapped'
p4296
I3924
sS'discounts'
p4297
I1275
sS'mexicans'
p4298
I2693
sS'difficulties'
p4299
I1257
sS'boosts'
p4300
I584
sS'correctly'
p4301
I1002
sS'confusion'
p4302
I950
sS'nuclear'
p4303
I2932
sS'populism'
p4304
I3210
sS'email'
p4305
I1432
sS'levinthal'
p4306
I2471
sS'cassidy'
p4307
I727
sS'ken'
p4308
I2351
sS'classless'
p4309
I843
sS'explosive'
p4310
I1544
sS'janet'
p4311
I2270
sS'turnbulls'
p4312
I4439
sS'notion'
p4313
I2928
sS'deliver'
p4314
I1184
sS'agencies'
p4315
I171
sS'scolds'
p4316
I3755
sS'prediction'
p4317
I3245
sS'kicking'
p4318
I2359
sS'job'
p4319
I2296
sS'navajos'
p4320
I2853
sS'joe'
p4321
I2298
sS'key'
p4322
I2352
sS'approval'
p4323
I298
sS'maga'
p4324
I2578
sS'boss'
p4325
I587
sS'lawsuit'
p4326
I2427
sS'problem'
p4327
I3282
sS'jon'
p4328
I2307
sS'thank'
p4329
I4265
sS'trumpf'
p4330
I4411
sS'renews'
p4331
I3515
sS'hits'
p4332
I2023
sS'piece'
p4333
I3144
sS'career'
p4334
I715
sS'joke'
p4335
I2305
sS'invited'
p4336
I2232
sS'ramp'
p4337
I3394
sS'spray'
p4338
I4017
sS'drug'
p4339
I1371
sS'kosher'
p4340
I2389
sS'april'
p4341
I303
sS'busted'
p4342
I661
sS'figures'
p4343
I1635
sS'trumps'
p4344
I4421
sS'invites'
p4345
I2233
sS'otherwise'
p4346
I3013
sS'comment'
p4347
I900
sS'adjusted'
p4348
I134
sS'torn'
p4349
I4345
sS'statues'
p4350
I4056
sS'travellers'
p4351
I4381
sS'surrogate'
p4352
I4158
sS'ambushed'
p4353
I227
sS'wall'
p4354
I4627
sS'malcolm'
p4355
I2592
sS'speaker'
p4356
I3991
sS'batavia'
p4357
I454
sS'wrap'
p4358
I4771
sS'brennan'
p4359
I610
sS'invisible'
p4360
I2231
sS'taylor'
p4361
I4227
sS'laugh'
p4362
I2419
sS'confronts'
p4363
I949
sS'labor'
p4364
I2399
sS'ovala'
p4365
I3026
sS'industrials'
p4366
I2171
sS'videos'
p4367
I4577
sS'second'
p4368
I3777
sS'plagiarized'
p4369
I3160
sS'hunters'
p4370
I2083
sS'sara'
p4371
I3713
sS'bbc'
p4372
I460
sS'cent'
p4373
I754
sS'quiz'
p4374
I3375
sS'immense'
p4375
I2122
sS'kahn'
p4376
I2335
sS'lu'
p4377
I2563
sS'outlines'
p4378
I3020
sS'islamphobic'
p4379
I2247
sS'recognize'
p4380
I3449
sS'poet'
p4381
I3186
sS'improve'
p4382
I2145
sS'annonce'
p4383
I250
sS'killed'
p4384
I2369
sS'revives'
p4385
I3593
sS'wtf'
p4386
I4785
sS'mike'
p4387
I2703
sS'stalled'
p4388
I4036
sS'received'
p4389
I3441
sS'painted'
p4390
I3047
sS'tap'
p4391
I4214
sS'reilly'
p4392
I3486
sS'womens'
p4393
I4745
sS'netanyahu'
p4394
I2878
sS'yellen'
p4395
I4796
sS'policy'
p4396
I3194
sS'erdogan'
p4397
I1483
sS'watches'
p4398
I4650
sS'abortions'
p4399
I88
sS'puerto'
p4400
I3337
sS'kicks'
p4401
I2360
sS'smoking'
p4402
I3946
sS'atlanta'
p4403
I360
sS'general'
p4404
I1777
sS'republicans'
p4405
I3546
sS'painter'
p4406
I3048
sS'volunteer'
p4407
I4603
sS'wins'
p4408
I4727
sS'ap'
p4409
I273
sS'intimidate'
p4410
I2216
sS'edging'
p4411
I1403
sS'runway'
p4412
I3674
sS'appearance'
p4413
I285
sS'as'
p4414
I332
sS'irate'
p4415
I2240
sS'choices'
p4416
I809
sS'will'
p4417
I4719
sS'stunning'
p4418
I4108
sS'replica'
p4419
I3534
sS'extradition'
p4420
I1557
sS'cox'
p4421
I1032
sS'promoted'
p4422
I3298
sS'happened'
p4423
I1929
sS'supply'
p4424
I4140
sS'koreans'
p4425
I2387
sS'responsabilidad'
p4426
I3565
sS'adminstration'
p4427
I136
sS'breitbartistan'
p4428
I609
sS'narendra'
p4429
I2843
sS'surface'
p4430
I4155
sS'helped'
p4431
I1986
sS'draining'
p4432
I1353
sS'vs'
p4433
I4615
sS'dems'
p4434
I1200
sS'dual'
p4435
I1373
sS'politics'
p4436
I3198
sS'arabia'
p4437
I306
sS'partner'
p4438
I3075
sS'minorities'
p4439
I2721
sS'wreck'
p4440
I4774
sS'halt'
p4441
I1914
sS'stands'
p4442
I4042
sS'shooting'
p4443
I3866
sS'steer'
p4444
I4062
sS'sachs'
p4445
I3687
sS'perhaps'
p4446
I3113
sS'swinging'
p4447
I4180
sS'divergences'
p4448
I1305
sS'orthodox'
p4449
I3008
sS'administration'
p4450
I135
sS'eric'
p4451
I1485
sS'khan'
p4452
I2354
sS'chants'
p4453
I778
sS'unity'
p4454
I4496
sS'parts'
p4455
I3076
sS'slammed'
p4456
I3920
sS'smarter'
p4457
I3941
sS'misogynist'
p4458
I2731
sS'party'
p4459
I3077
sS'terrorism'
p4460
I4252
sS'gets'
p4461
I1785
sS'powell'
p4462
I3232
sS'tighten'
p4463
I4312
sS'ball'
p4464
I424
sS'columbia'
p4465
I888
sS'receives'
p4466
I3442
sS'bali'
p4467
I421
sS'samantha'
p4468
I3703
sS'huntsman'
p4469
I2084
sS'bald'
p4470
I418
sS'effect'
p4471
I1408
sS'automation'
p4472
I386
sS'beast'
p4473
I463
sS'islam'
p4474
I2245
sS'never'
p4475
I2884
sS'fierce'
p4476
I1629
sS'giuliani'
p4477
I1798
sS'afghan'
p4478
I161
sS'judgment'
p4479
I2321
sS'lobby'
p4480
I2526
sS'identity'
p4481
I2100
sS'destruction'
p4482
I1238
sS'gutter'
p4483
I1897
sS'off'
p4484
I2955
sS'records'
p4485
I3454
sS'i'
I2094
sS'colour'
p4486
I887
sS'49'
p4487
I51
sS'seth'
p4488
I3819
sS'banging'
p4489
I430
sS'fighting'
p4490
I1633
sS'messiah'
p4491
I2687
sS'thought'
p4492
I4290
sS'touching'
p4493
I4353
sS'sets'
p4494
I3820
sS'fail'
p4495
I1574
sS'sjws'
p4496
I3911
sS'latest'
p4497
I2416
sS'restore'
p4498
I3568
sS'pursuit'
p4499
I3350
sS'newest'
p4500
I2888
sS'barking'
p4501
I443
sS'rocket'
p4502
I3644
sS'less'
p4503
I2465
sS'moments'
p4504
I2761
sS'offensive'
p4505
I2956
sS'executive'
p4506
I1526
sS'domestic'
p4507
I1326
sS'43'
p4508
I48
sS'recap'
p4509
I3440
sS'trust'
p4510
I4424
sS'mistakes'
p4511
I2741
sS'voting'
p4512
I4611
sS'predicts'
p4513
I3247
sS'dakota'
p4514
I1095
sS'protecting'
p4515
I3311
sS'paul'
p4516
I3089
sS'pruitt'
p4517
I3330
sS'disturbance'
p4518
I1302
sS'urged'
p4519
I4526
sS'investor'
p4520
I2229
sS'gma'
p4521
I1815
sS'point'
p4522
I3188
sS'demographic'
p4523
I1196
sS'morbidly'
p4524
I2772
sS'hall'
p4525
I1912
sS'arrest'
p4526
I322
sS'add'
p4527
I129
sS'other'
p4528
I3011
sS'extends'
p4529
I1555
sS'crack'
p4530
I1034
sS'5'
I52
sS'niro'
p4531
I2905
sS'scoundrel'
p4532
I3758
sS'unprecedented'
p4533
I4506
sS'kick'
p4534
I2358
sS'boom'
p4535
I580
sS'tests'
p4536
I4261
sS'increased'
p4537
I2154
sS'fate'
p4538
I1603
sS'complicity'
p4539
I925
sS'utah'
p4540
I4537
sS'crushed'
p4541
I1067
sS'falters'
p4542
I1588
sS'livid'
p4543
I2518
sS'increases'
p4544
I2155
sS'historic'
p4545
I2017
sS'five'
p4546
I1659
sS'know'
p4547
I2382
sS'press'
p4548
I3260
sS'immediately'
p4549
I2121
sS'crushes'
p4550
I1068
sS'slattery'
p4551
I3928
sS'you'
p4552
I4801
sS'name'
p4553
I2838
sS'loss'
p4554
I2553
sS'trash'
p4555
I4378
sS'like'
p4556
I2493
sS'lost'
p4557
I2554
sS'ring'
p4558
I3619
sS'bigotry'
p4559
I520
sS'widows'
p4560
I4713
sS'clown'
p4561
I863
sS'loses'
p4562
I2551
sS've'
p4563
I4550
sS'sagen'
p4564
I3695
sS'hosts'
p4565
I2062
sS'journalist'
p4566
I2313
sS'james'
p4567
I2269
sS'become'
p4568
I471
sS'works'
p4569
I4756
sS'refugees'
p4570
I3472
sS'italian'
p4571
I2259
sS'amendment'
p4572
I228
sS'poor'
p4573
I3205
sS'because'
p4574
I470
sS'use'
p4575
I4532
sS'muro'
p4576
I2817
sS'belonged'
p4577
I493
sS'alive'
p4578
I202
sS'hair'
p4579
I1909
sS'tony'
p4580
I4336
sS'daylight'
p4581
I1122
sS'growth'
p4582
I1880
sS'export'
p4583
I1545
sS'loaded'
p4584
I2523
sS'home'
p4585
I2039
sS'peter'
p4586
I3124
sS'ballot'
p4587
I427
sS'happens'
p4588
I1931
sS'health'
p4589
I1968
sS'ravaged'
p4590
I3415
sS'lead'
p4591
I2432
sS'broad'
p4592
I626
sS'hurricane'
p4593
I2085
sS'slide'
p4594
I3932
sS'demonstrators'
p4595
I1199
sS'does'
p4596
I1318
sS'bosses'
p4597
I588
sS'hoaxers'
p4598
I2026
sS'chains'
p4599
I761
sS'leader'
p4600
I2433
sS'survivor'
p4601
I4162
sS'ripped'
p4602
I3624
sS'blowing'
p4603
I559
sS'maher'
p4604
I2582
sS'mitt'
p4605
I2744
sS'slut'
p4606
I3938
sS'paper'
p4607
I3059
sS'pressure'
p4608
I3264
sS'host'
p4609
I2059
sS'balkans'
p4610
I423
sS'worthy'
p4611
I4766
sS'targeting'
p4612
I4218
sS'stay'
p4613
I4058
sS'television'
p4614
I4238
sS'panel'
p4615
I3053
sS'about'
p4616
I89
sS'puts'
p4617
I3358
sS'extension'
p4618
I1556
sS'getting'
p4619
I1786
sS'freedom'
p4620
I1725
sS'teacher'
p4621
I4231
sS'label'
p4622
I2396
sS'flake'
p4623
I1665
sS'stamp'
p4624
I4037
sS'saker'
p4625
I3698
sS'urges'
p4626
I4528
sS'clooney'
p4627
I854
sS'emperor'
p4628
I1444
sS'unabated'
p4629
I4466
sS'deplaned'
p4630
I1209
sS'celebrations'
p4631
I751
sS'recognise'
p4632
I3446
sS'libertarians'
p4633
I2480
sS'conway'
p4634
I989
sS'owe'
p4635
I3033
sS'primal'
p4636
I3269
sS'booed'
p4637
I577
sS'terry'
p4638
I4255
sS'catherine'
p4639
I735
sS'domain'
p4640
I1325
sS'billions'
p4641
I527
sS'referendum'
p4642
I3466
sS'fundraiser'
p4643
I1749
sS'guard'
p4644
I1884
sS'doesnt'
p4645
I1320
sS'promise'
p4646
I3295
sS'female'
p4647
I1621
sS'registration'
p4648
I3479
sS'themed'
p4649
I4272
sS'couldnt'
p4650
I1008
sS'quiet'
p4651
I3370
sS'brilliantly'
p4652
I621
sS'mississippi'
p4653
I2739
sS'nuke'
p4654
I2933
sS'rejoice'
p4655
I3492
sS'zenith'
p4656
I4811
sS'rushed'
p4657
I3676
sS'housing'
p4658
I2069
sS'kidding'
p4659
I2361
sS'rushes'
p4660
I3677
sS'katasonov'
p4661
I2339
sS'dropping'
p4662
I1369
sS'try'
p4663
I4427
sS'misogyny'
p4664
I2732
sS'biggest'
p4665
I517
sS'wearing'
p4666
I4667
sS'hawkishness'
p4667
I1960
sS'flynn'
p4668
I1682
sS'hotspots'
p4669
I2066
sS'fiscal'
p4670
I1656
sS'buy'
p4671
I665
sS'north'
p4672
I2920
sS'revalue'
p4673
I3582
sS'triggered'
p4674
I4394
sS'funds'
p4675
I1751
sS'brand'
p4676
I600
sS'stories'
p4677
I4083
sS'but'
p4678
I662
sS'delivery'
p4679
I1186
sS'neutral'
p4680
I2881
sS'construction'
p4681
I971
sS'gain'
p4682
I1758
sS'courts'
p4683
I1025
sS'threaten'
p4684
I4293
sS'veterans'
p4685
I4563
sS'delivers'
p4686
I1185
sS'ha'
p4687
I1900
sS'bilateral'
p4688
I522
sS'embargo'
p4689
I1434
sS'breakthrough'
p4690
I607
sS'dama'
p4691
I1096
sS'tactics'
p4692
I4200
sS'glory'
p4693
I1812
sS'oligarchy'
p4694
I2971
sS'whether'
p4695
I4695
sS'dangerous'
p4696
I1104
sS'j'
I2263
sS'grieve'
p4697
I1867
sS'backfires'
p4698
I409
sS'record'
p4699
I3452
sS'limit'
p4700
I2499
sS'ruling'
p4701
I3670
sS'offstage'
p4702
I2965
sS'cake'
p4703
I676
sS'semitism'
p4704
I3800
sS'dmz'
p4705
I1311
sS'meyers'
p4706
I2695
sS'minutes'
p4707
I2724
sS'tricks'
p4708
I4390
sS'urging'
p4709
I4529
sS'obstacles'
p4710
I2948
sS'what'
p4711
I4690
sS'cordial'
p4712
I996
sS'supreme'
p4713
I4152
sS'viviendo'
p4714
I4597
sS'pin'
p4715
I3150
sS'deaths'
p4716
I1139
sS'curve'
p4717
I1081
sS'domino'
p4718
I1331
sS'year'
p4719
I4793
sS'romney'
p4720
I3655
sS'topless'
p4721
I4342
sS'upsets'
p4722
I4523
sS'ins'
p4723
I2187
sS'twist'
p4724
I4452
sS'beats'
p4725
I468
sS'referee'
p4726
I3465
sS'tumultuous'
p4727
I4431
sS'ine'
p4728
I2173
sS'education'
p4729
I1406
sS'autism'
p4730
I383
sS'visa'
p4731
I4590
sS'jesse'
p4732
I2284
sS'spell'
p4733
I3998
sS'compared'
p4734
I918
sS'contest'
p4735
I976
sS'sexual'
p4736
I3827
sS'44'
p4737
I49
sS'boos'
p4738
I581
sS'42'
p4739
I47
sS'detail'
p4740
I1239
sS'willing'
p4741
I4721
sS'members'
p4742
I2674
sS'takei'
p4743
I4203
sS'old'
p4744
I2969
sS'book'
p4745
I578
sS'compares'
p4746
I919
sS'details'
p4747
I1240
sS'normal'
p4748
I2918
sS'snowden'
p4749
I3950
sS'suspiciously'
p4750
I4167
sS'u'
I4455
sS'behold'
p4751
I485
sS'hysteria'
p4752
I2093
sS'dresses'
p4753
I1363
sS'hacker'
p4754
I1901
sS'illegally'
p4755
I2115
sS'francisco'
p4756
I1719
sS'star'
p4757
I4043
sS'ways'
p4758
I4660
sS'pastor'
p4759
I3083
sS'secretly'
p4760
I3781
sS'shredded'
p4761
I3880
sS'treason'
p4762
I4382
sS'june'
p4763
I2329
sS'rex'
p4764
I3599
sS'insults'
p4765
I2199
sS'socialising'
p4766
I3957
sS'psychotics'
p4767
I3333
sS'chance'
p4768
I770
sS'ceos'
p4769
I759
sS'cheque'
p4770
I798
sS'badass'
p4771
I414
sS'repeal'
p4772
I3524
sS'friends'
p4773
I1730
sS'union'
p4774
I4493
sS'christians'
p4775
I816
sS'exposure'
p4776
I1551
sS'appoint'
p4777
I289
sS'nevertrump'
p4778
I2885
sS'using'
p4779
I4535
sS'resolution'
p4780
I3558
sS'boycottcomedian'
p4781
I596
sS'khanfar'
p4782
I2355
sS'rule'
p4783
I3668
sS'jab'
p4784
I2264
sS'pandering'
p4785
I3052
sS'weld'
p4786
I4682
sS'tensions'
p4787
I4245
sS'uneducated'
p4788
I4483
sS'rural'
p4789
I3675
sS'honchos'
p4790
I2041
sS'expands'
p4791
I1531
sS'rep'
p4792
I3521
sS'8th'
p4793
I68
s.